Certificate:
    Data:
        Version: 3 (0x2)
        Serial Number:
            41:4d:a2:d1:40:e4:21:9f:31:60:73:3d:17:e0:c2:66
        Signature Algorithm: ecdsa-with-SHA256
        Issuer: C=US, O=Entrust, Inc., OU=See www.entrust.net/legal-terms, OU=(c) 2016 Entrust, Inc. - for authorized use only, CN=Entrust eSIM Certification Authority
        Validity
            Not Before: Sep  9 15:47:49 2022 GMT
            Not After : Sep  9 15:47:49 2024 GMT
        Subject: C=DE, ST=Bayern, L=Munich, O=Giesecke & Devrient GmbH, CN=AirOn V4 DP PROD, emailAddress=kai.scholl@gi-de.com
        Subject Public Key Info:
            Public Key Algorithm: id-ecPublicKey
                Public-Key: (256 bit)
                pub:
                    04:29:09:25:24:1f:1c:11:a0:fc:b5:1d:09:df:63:
                    e8:0d:07:0f:51:6b:9b:ae:bd:07:b2:e4:c9:b6:85:
                    d6:91:f4:42:c4:0a:13:28:15:be:38:d1:7a:41:d8:
                    87:92:7c:58:53:83:9b:26:84:f1:0a:3c:38:59:1b:
                    bd:ee:ce:6f:51
                ASN1 OID: prime256v1
                NIST CURVE: P-256
        X509v3 extensions:
            X509v3 Basic Constraints: critical
                CA:FALSE
            X509v3 Subject Key Identifier: 
                54:02:D2:37:69:E3:2D:E4:40:D1:45:BD:FF:CA:D7:36:90:F9:F2:8E
            X509v3 Authority Key Identifier: 
                16:70:4B:7F:35:1E:36:07:F1:8C:4B:70:00:5C:3A:00:3D:FD:41:4A
            X509v3 CRL Distribution Points: 
                Full Name:
                  URI:http://crl.entrust.net/entesimca.crl
            X509v3 Subject Alternative Name: 
                Registered ID:1.3.6.1.4.1.11791.104.90.3.4
            X509v3 Key Usage: critical
                Digital Signature
            X509v3 Certificate Policies: critical
                Policy: 2.23.146.1.2.1.4
    Signature Algorithm: ecdsa-with-SHA256
    Signature Value:
        30:44:02:20:3a:3c:2c:8e:ff:32:19:ff:23:6b:52:59:68:8a:
        de:cd:57:44:45:af:e9:19:e1:ff:e8:66:3a:2c:53:5f:f8:a9:
        02:20:5e:26:3a:10:d4:32:c7:54:78:20:f2:b8:35:0f:93:59:
        5c:28:bc:21:b7:d7:36:97:a4:af:dc:7f:71:d0:f9:49
-----BEGIN CERTIFICATE-----
MIIDFDCCArugAwIBAgIQQU2i0UDkIZ8xYHM9F+DCZjAKBggqhkjOPQQDAjCBuTEL
MAkGA1UEBhMCVVMxFjAUBgNVBAoTDUVudHJ1c3QsIEluYy4xKDAmBgNVBAsTH1Nl
ZSB3d3cuZW50cnVzdC5uZXQvbGVnYWwtdGVybXMxOTA3BgNVBAsTMChjKSAyMDE2
IEVudHJ1c3QsIEluYy4gLSBmb3IgYXV0aG9yaXplZCB1c2Ugb25seTEtMCsGA1UE
AxMkRW50cnVzdCBlU0lNIENlcnRpZmljYXRpb24gQXV0aG9yaXR5MB4XDTIyMDkw
OTE1NDc0OVoXDTI0MDkwOTE1NDc0OVowgZIxCzAJBgNVBAYTAkRFMQ8wDQYDVQQI
EwZCYXllcm4xDzANBgNVBAcTBk11bmljaDEhMB8GA1UECgwYR2llc2Vja2UgJiBE
ZXZyaWVudCBHbWJIMRkwFwYDVQQDExBBaXJPbiBWNCBEUCBQUk9EMSMwIQYJKoZI
hvcNAQkBFhRrYWkuc2Nob2xsQGdpLWRlLmNvbTBZMBMGByqGSM49AgEGCCqGSM49
AwEHA0IABCkJJSQfHBGg/LUdCd9j6A0HD1Frm669B7LkybaF1pH0QsQKEygVvjjR
ekHYh5J8WFODmyaE8Qo8OFkbve7Ob1GjgckwgcYwDAYDVR0TAQH/BAIwADAdBgNV
HQ4EFgQUVALSN2njLeRA0UW9/8rXNpD58o4wHwYDVR0jBBgwFoAUFnBLfzUeNgfx
jEtwAFw6AD39QUowNQYDVR0fBC4wLDAqoCigJoYkaHR0cDovL2NybC5lbnRydXN0
Lm5ldC9lbnRlc2ltY2EuY3JsMBYGA1UdEQQPMA2ICysGAQQB3A9oWgMEMA4GA1Ud
DwEB/wQEAwIHgDAXBgNVHSABAf8EDTALMAkGB2eBEgECAQQwCgYIKoZIzj0EAwID
RwAwRAIgOjwsjv8yGf8ja1JZaIrezVdERa/pGeH/6GY6LFNf+KkCIF4mOhDUMsdU
eCDyuDUPk1lcKLwht9c2l6Sv3H9x0PlJ
-----END CERTIFICATE-----
