Certificate:
    Data:
        Version: 3 (0x2)
        Serial Number:
            75:d7:1d:c1:da:6d:d7:bc:e4:82:19:bf:b7:eb:b6:eb
        Signature Algorithm: ecdsa-with-SHA256
        Issuer: O=GSM Association, CN=GSM Association - RSP2 Root CI1
        Validity
            Not Before: Apr 13 00:00:00 2017 GMT
            Not After : Apr 12 23:59:59 2027 GMT
        Subject: C=RO, L=Otopeni, O=Oberthur Technologies Romania SRL, CN=Oberthur Technologies SM-DP 01
        Subject Public Key Info:
            Public Key Algorithm: id-ecPublicKey
                Public-Key: (256 bit)
                pub:
                    04:6e:25:75:32:32:b8:a7:38:9f:36:76:77:03:8f:
                    04:08:9d:5c:7e:39:a9:fb:22:da:2f:f9:b7:99:78:
                    5b:ed:52:e7:af:96:eb:98:ad:bd:9e:54:59:fe:1c:
                    aa:c4:99:a1:5e:4e:08:85:cc:86:7f:98:2c:7e:69:
                    ed:b3:96:1f:9a
                ASN1 OID: prime256v1
                NIST CURVE: P-256
        X509v3 extensions:
            X509v3 Certificate Policies: critical
                Policy: 2.23.146.1.2.1.4
            X509v3 CRL Distribution Points: 
                Full Name:
                  URI:http://gsma-crl.symauth.com/offlineca/gsma-rsp2-root-ci1.crl
            X509v3 Key Usage: critical
                Digital Signature
            X509v3 Subject Alternative Name: 
                Registered ID:1.3.6.1.4.1.30703.836685.503.101.101
            X509v3 Subject Key Identifier: 
                00:AA:F2:5D:EC:E4:87:FB:53:CE:27:5B:74:E6:78:8A:F1:CC:D1:5B
            X509v3 Authority Key Identifier: 
                81:37:0F:51:25:D0:B1:D4:08:D4:C3:B2:32:E6:D2:5E:79:5B:EB:FB
    Signature Algorithm: ecdsa-with-SHA256
    Signature Value:
        30:45:02:21:00:dc:7f:ac:a2:31:2f:43:6f:1f:19:18:23:94:
        85:8b:34:cb:61:57:7a:7a:9d:15:4a:49:65:70:9f:36:2e:37:
        de:02:20:2c:6a:f7:e6:77:53:da:45:de:3a:b3:71:00:34:bb:
        53:f5:77:7e:87:1e:f1:00:34:07:58:7c:1b:df:59:31:a7
-----BEGIN CERTIFICATE-----
MIICjjCCAjSgAwIBAgIQddcdwdpt17zkghm/t+u26zAKBggqhkjOPQQDAjBEMRgw
FgYDVQQKEw9HU00gQXNzb2NpYXRpb24xKDAmBgNVBAMTH0dTTSBBc3NvY2lhdGlv
biAtIFJTUDIgUm9vdCBDSTEwHhcNMTcwNDEzMDAwMDAwWhcNMjcwNDEyMjM1OTU5
WjB0MQswCQYDVQQGEwJSTzEQMA4GA1UEBxMHT3RvcGVuaTEqMCgGA1UEChMhT2Jl
cnRodXIgVGVjaG5vbG9naWVzIFJvbWFuaWEgU1JMMScwJQYDVQQDEx5PYmVydGh1
ciBUZWNobm9sb2dpZXMgU00tRFAgMDEwWTATBgcqhkjOPQIBBggqhkjOPQMBBwNC
AARuJXUyMrinOJ82dncDjwQInVx+Oan7Itov+beZeFvtUuevluuYrb2eVFn+HKrE
maFeTgiFzIZ/mCx+ae2zlh+ao4HXMIHUMBcGA1UdIAEB/wQNMAswCQYHZ4ESAQIB
BDBNBgNVHR8ERjBEMEKgQKA+hjxodHRwOi8vZ3NtYS1jcmwuc3ltYXV0aC5jb20v
b2ZmbGluZWNhL2dzbWEtcnNwMi1yb290LWNpMS5jcmwwDgYDVR0PAQH/BAQDAgeA
MBoGA1UdEQQTMBGIDysGAQQBge9vs4hNg3dlZTAdBgNVHQ4EFgQUAKryXezkh/tT
zidbdOZ4ivHM0VswHwYDVR0jBBgwFoAUgTcPUSXQsdQI1MOyMubSXnlb6/swCgYI
KoZIzj0EAwIDSAAwRQIhANx/rKIxL0NvHxkYI5SFizTLYVd6ep0VSkllcJ82Ljfe
AiAsavfmd1PaRd46s3EANLtT9Xd+hx7xADQHWHwb31kxpw==
-----END CERTIFICATE-----
