Certificate:
    Data:
        Version: 3 (0x2)
        Serial Number: 3 (0x3)
        Signature Algorithm: ecdsa-with-SHA256
        Issuer: C=FR, O=OBERTHUR TECHNOLOGIES, OU=TELECOM, CN=MC4 OT ROOT CI v1
        Validity
            Not Before: Jun 21 00:00:00 2017 GMT
            Not After : Jun 14 23:59:59 2047 GMT
        Subject: C=FR, L=Colombes Cedex, O=Oberthur Technologies, OU=Oberthur Technologies RnD, CN=OT M-Connect DP
        Subject Public Key Info:
            Public Key Algorithm: id-ecPublicKey
                Public-Key: (256 bit)
                pub:
                    04:ae:05:f6:ac:1e:af:5e:06:42:ef:c8:be:33:f9:
                    e8:ff:4f:ae:9f:c9:27:6e:8a:50:f2:4d:27:de:30:
                    fc:8f:e6:c2:31:fa:db:41:2e:d0:67:56:21:5d:91:
                    52:06:a3:7c:49:98:4f:10:52:d1:ed:d9:04:8e:aa:
                    94:d6:ce:f5:63
                ASN1 OID: prime256v1
                NIST CURVE: P-256
        X509v3 extensions:
            X509v3 Authority Key Identifier: 
                CD:6E:60:B7:2D:7A:06:3C:BC:84:62:5B:91:E8:0F:E3:04:06:E1:3E
            X509v3 Subject Key Identifier: 
                81:61:12:C1:86:7C:A2:7D:98:DB:A2:90:47:77:B2:C3:62:8C:DD:6B
            X509v3 Key Usage: critical
                Digital Signature
            X509v3 Certificate Policies: critical
                Policy: 2.23.146.1.2.1.4
            X509v3 Subject Alternative Name: 
                Registered ID:1.3.6.1.4.1.30703.836685.503
    Signature Algorithm: ecdsa-with-SHA256
    Signature Value:
        30:44:02:20:46:44:c0:8d:ed:54:1d:0d:a7:1d:36:96:85:8b:
        df:de:88:fd:f7:95:94:b6:d7:6c:a5:93:a4:2a:79:98:b4:f1:
        02:20:54:ef:f1:88:d6:24:a1:1c:21:f1:0c:07:87:60:e7:9d:
        0b:86:ef:a3:f7:57:a1:7b:a3:51:4f:ff:58:78:0f:f6
-----BEGIN CERTIFICATE-----
MIICVTCCAfygAwIBAgIBAzAKBggqhkjOPQQDAjBbMQswCQYDVQQGEwJGUjEeMBwG
A1UEChMVT0JFUlRIVVIgVEVDSE5PTE9HSUVTMRAwDgYDVQQLEwdURUxFQ09NMRow
GAYDVQQDExFNQzQgT1QgUk9PVCBDSSB2MTAeFw0xNzA2MjEwMDAwMDBaFw00NzA2
MTQyMzU5NTlaMIGEMQswCQYDVQQGEwJGUjEXMBUGA1UEBxMOQ29sb21iZXMgQ2Vk
ZXgxHjAcBgNVBAoTFU9iZXJ0aHVyIFRlY2hub2xvZ2llczEiMCAGA1UECxMZT2Jl
cnRodXIgVGVjaG5vbG9naWVzIFJuRDEYMBYGA1UEAxMPT1QgTS1Db25uZWN0IERQ
MFkwEwYHKoZIzj0CAQYIKoZIzj0DAQcDQgAErgX2rB6vXgZC78i+M/no/0+un8kn
bopQ8k0n3jD8j+bCMfrbQS7QZ1YhXZFSBqN8SZhPEFLR7dkEjqqU1s71Y6OBhjCB
gzAfBgNVHSMEGDAWgBTNbmC3LXoGPLyEYluR6A/jBAbhPjAdBgNVHQ4EFgQUgWES
wYZ8on2Y26KQR3eyw2KM3WswDgYDVR0PAQH/BAQDAgCAMBcGA1UdIAEB/wQNMAsw
CQYHZ4ESAQIBBDAYBgNVHREEETAPiA0rBgEEAYHvb7OITYN3MAoGCCqGSM49BAMC
A0cAMEQCIEZEwI3tVB0Npx02loWL396I/feVlLbXbKWTpCp5mLTxAiBU7/GI1iSh
HCHxDAeHYOedC4bvo/dXoXujUU//WHgP9g==
-----END CERTIFICATE-----
