Certificate:
    Data:
        Version: 3 (0x2)
        Serial Number:
            43:e4:19:56:be:eb:ac:f5:bc:a1:15:ba:e0:f3:97:4a
        Signature Algorithm: ecdsa-with-SHA256
        Issuer: O=GSM Association, CN=GSM Association - RSP2 Root CI1
        Validity
            Not Before: Jun 23 00:00:00 2022 GMT
            Not After : Jun 22 23:59:59 2025 GMT
        Subject: C=US, L=Iowa, O=THALES SA, OU=ODC US, CN=SMDPP GCP UC 01
        Subject Public Key Info:
            Public Key Algorithm: id-ecPublicKey
                Public-Key: (256 bit)
                pub:
                    04:96:df:7d:1b:df:68:87:69:9f:e9:6f:0d:ba:ac:
                    8e:12:48:a9:e5:7c:d6:58:b1:aa:33:72:0c:98:a0:
                    52:5b:e9:ba:b0:ea:00:c4:c2:cd:d2:11:7d:3b:7d:
                    5d:19:ee:11:b8:c3:17:37:d9:56:0d:c1:b0:5a:6b:
                    8e:7a:fc:6f:7d
                ASN1 OID: prime256v1
                NIST CURVE: P-256
        X509v3 extensions:
            X509v3 Subject Key Identifier: 
                29:13:12:97:7A:13:A4:74:C2:0C:FB:94:C2:50:50:9C:61:4B:7C:C6
            X509v3 Certificate Policies: critical
                Policy: 2.23.146.1.2.1.4
            X509v3 CRL Distribution Points: 
                Full Name:
                  URI:http://gsma-crl.symauth.com/offlineca/gsma-rsp2-root-ci1.crl
            X509v3 Key Usage: critical
                Digital Signature
            X509v3 Subject Alternative Name: 
                Registered ID:1.3.6.1.4.1.31746.1.220.100.101.2
            X509v3 Authority Key Identifier: 
                81:37:0F:51:25:D0:B1:D4:08:D4:C3:B2:32:E6:D2:5E:79:5B:EB:FB
    Signature Algorithm: ecdsa-with-SHA256
    Signature Value:
        30:45:02:20:47:89:37:29:85:fc:1e:4f:c4:d1:ad:0e:2d:8c:
        93:5a:15:6f:f7:a2:a2:60:dc:98:04:aa:34:bc:ca:a8:75:96:
        02:21:00:c9:ac:06:ca:e3:bd:a9:d1:dc:2b:09:2e:e3:ad:97:
        c5:5c:4f:3d:9e:f2:33:28:be:d2:33:3c:75:d7:16:50:f6
-----BEGIN CERTIFICATE-----
MIICdDCCAhqgAwIBAgIQQ+QZVr7rrPW8oRW64POXSjAKBggqhkjOPQQDAjBEMRgw
FgYDVQQKEw9HU00gQXNzb2NpYXRpb24xKDAmBgNVBAMTH0dTTSBBc3NvY2lhdGlv
biAtIFJTUDIgUm9vdCBDSTEwHhcNMjIwNjIzMDAwMDAwWhcNMjUwNjIyMjM1OTU5
WjBbMQswCQYDVQQGEwJVUzENMAsGA1UEBwwESW93YTESMBAGA1UECgwJVEhBTEVT
IFNBMQ8wDQYDVQQLDAZPREMgVVMxGDAWBgNVBAMMD1NNRFBQIEdDUCBVQyAwMTBZ
MBMGByqGSM49AgEGCCqGSM49AwEHA0IABJbffRvfaIdpn+lvDbqsjhJIqeV81lix
qjNyDJigUlvpurDqAMTCzdIRfTt9XRnuEbjDFzfZVg3BsFprjnr8b32jgdYwgdMw
HQYDVR0OBBYEFCkTEpd6E6R0wgz7lMJQUJxhS3zGMBcGA1UdIAEB/wQNMAswCQYH
Z4ESAQIBBDBNBgNVHR8ERjBEMEKgQKA+hjxodHRwOi8vZ3NtYS1jcmwuc3ltYXV0
aC5jb20vb2ZmbGluZWNhL2dzbWEtcnNwMi1yb290LWNpMS5jcmwwDgYDVR0PAQH/
BAQDAgeAMBkGA1UdEQQSMBCIDisGAQQBgfgCAYFcZGUCMB8GA1UdIwQYMBaAFIE3
D1El0LHUCNTDsjLm0l55W+v7MAoGCCqGSM49BAMCA0gAMEUCIEeJNymF/B5PxNGt
Di2Mk1oVb/eiomDcmASqNLzKqHWWAiEAyawGyuO9qdHcKwku462XxVxPPZ7yMyi+
0jM8ddcWUPY=
-----END CERTIFICATE-----
