Certificate:
    Data:
        Version: 3 (0x2)
        Serial Number:
            25:1f:65:0c:41:5f:3a:02:5d:01:e8:45:91:07:05:4d
        Signature Algorithm: ecdsa-with-SHA256
        Issuer: O=GSM Association, CN=GSM Association - RSP2 Root CI1
        Validity
            Not Before: Nov  5 00:00:00 2021 GMT
            Not After : Nov  4 23:59:59 2024 GMT
        Subject: O=REDTEA MOBILE PTE. LTD., CN=REDTEA MOBILE DP_AUTH
        Subject Public Key Info:
            Public Key Algorithm: id-ecPublicKey
                Public-Key: (256 bit)
                pub:
                    04:27:52:41:7b:e1:04:b3:2a:1c:01:0f:6f:63:38:
                    c2:06:db:4c:90:67:2e:7c:6b:0b:89:42:c3:90:81:
                    dc:6c:62:a2:48:11:d1:91:92:0f:08:8f:12:fd:18:
                    70:eb:20:75:04:35:b4:21:40:34:15:8e:1e:45:57:
                    6c:a9:2d:ad:36
                ASN1 OID: prime256v1
                NIST CURVE: P-256
        X509v3 extensions:
            X509v3 Certificate Policies: critical
                Policy: 2.23.146.1.2.1.4
            X509v3 CRL Distribution Points: 
                Full Name:
                  URI:http://gsma-crl.symauth.com/offlineca/gsma-rsp2-root-ci1.crl
            X509v3 Key Usage: critical
                Digital Signature
            X509v3 Subject Alternative Name: 
                Registered ID:1.3.6.1.4.1.58012
            X509v3 Subject Key Identifier: 
                1F:72:0D:A1:1C:E2:06:9B:97:73:05:75:A0:DA:67:5C:67:95:B7:A2
            X509v3 Authority Key Identifier: 
                81:37:0F:51:25:D0:B1:D4:08:D4:C3:B2:32:E6:D2:5E:79:5B:EB:FB
    Signature Algorithm: ecdsa-with-SHA256
    Signature Value:
        30:46:02:21:00:d4:06:c4:14:84:79:44:5b:a0:bc:bb:13:f6:
        59:2b:cf:ed:f2:4d:2c:69:66:07:9d:b6:17:fb:a4:60:f0:bc:
        12:02:21:00:ef:d4:7d:07:c1:0d:7c:56:d7:2f:6b:e5:9b:b6:
        ce:20:dd:98:af:ae:42:34:e1:01:96:0d:11:b2:d6:a2:df:08
-----BEGIN CERTIFICATE-----
MIICVjCCAfugAwIBAgIQJR9lDEFfOgJdAehFkQcFTTAKBggqhkjOPQQDAjBEMRgw
FgYDVQQKEw9HU00gQXNzb2NpYXRpb24xKDAmBgNVBAMTH0dTTSBBc3NvY2lhdGlv
biAtIFJTUDIgUm9vdCBDSTEwHhcNMjExMTA1MDAwMDAwWhcNMjQxMTA0MjM1OTU5
WjBCMSAwHgYDVQQKDBdSRURURUEgTU9CSUxFIFBURS4gTFRELjEeMBwGA1UEAwwV
UkVEVEVBIE1PQklMRSBEUF9BVVRIMFkwEwYHKoZIzj0CAQYIKoZIzj0DAQcDQgAE
J1JBe+EEsyocAQ9vYzjCBttMkGcufGsLiULDkIHcbGKiSBHRkZIPCI8S/Rhw6yB1
BDW0IUA0FY4eRVdsqS2tNqOB0DCBzTAXBgNVHSABAf8EDTALMAkGB2eBEgECAQQw
TQYDVR0fBEYwRDBCoECgPoY8aHR0cDovL2dzbWEtY3JsLnN5bWF1dGguY29tL29m
ZmxpbmVjYS9nc21hLXJzcDItcm9vdC1jaTEuY3JsMA4GA1UdDwEB/wQEAwIHgDAT
BgNVHREEDDAKiAgrBgEEAYPFHDAdBgNVHQ4EFgQUH3INoRziBpuXcwV1oNpnXGeV
t6IwHwYDVR0jBBgwFoAUgTcPUSXQsdQI1MOyMubSXnlb6/swCgYIKoZIzj0EAwID
SQAwRgIhANQGxBSEeURboLy7E/ZZK8/t8k0saWYHnbYX+6Rg8LwSAiEA79R9B8EN
fFbXL2vlm7bOIN2Yr65CNOEBlg0Rstai3wg=
-----END CERTIFICATE-----
