Certificate:
    Data:
        Version: 3 (0x2)
        Serial Number:
            48:55:33:94:88:eb:e0:cd:00:de:c6:00:da:86:25:e1
        Signature Algorithm: ecdsa-with-SHA256
        Issuer: O=GSM Association, CN=GSM Association - RSP2 Root CI1
        Validity
            Not Before: Jul 15 00:00:00 2021 GMT
            Not After : Jul 14 23:59:59 2024 GMT
        Subject: C=CN, ST=GuangDong, L=ShenZhen, O=Links Field Networks Ltd., OU=SAS-SM, CN=rsp-0001.linksfield.net
        Subject Public Key Info:
            Public Key Algorithm: id-ecPublicKey
                Public-Key: (256 bit)
                pub:
                    04:16:35:7f:d2:15:a4:cb:5a:d0:19:ee:0a:2a:96:
                    28:11:e0:84:cc:04:7d:70:55:cb:6d:66:77:11:27:
                    4a:17:e8:e4:c2:20:e4:3c:e1:9f:5a:96:7c:91:c0:
                    ac:75:d9:44:31:18:85:4c:ef:19:80:60:d1:1b:3e:
                    59:ec:1b:8e:dd
                ASN1 OID: prime256v1
                NIST CURVE: P-256
        X509v3 extensions:
            X509v3 Certificate Policies: critical
                Policy: 2.23.146.1.2.1.4
            X509v3 CRL Distribution Points: 
                Full Name:
                  URI:http://gsma-crl.symauth.com/offlineca/gsma-rsp2-root-ci1.crl
            X509v3 Key Usage: critical
                Digital Signature
            X509v3 Subject Alternative Name: 
                Registered ID:1.3.6.1.4.1.57489
            X509v3 Subject Key Identifier: 
                41:5E:34:E1:07:D8:87:31:CC:B9:87:81:17:66:EE:80:34:19:BE:AC
            X509v3 Authority Key Identifier: 
                81:37:0F:51:25:D0:B1:D4:08:D4:C3:B2:32:E6:D2:5E:79:5B:EB:FB
    Signature Algorithm: ecdsa-with-SHA256
    Signature Value:
        30:45:02:21:00:c9:f3:6e:03:54:3f:74:45:ef:43:a4:02:da:
        bd:2e:81:f2:dc:51:74:63:a5:6f:ae:a1:09:3b:f7:f8:72:e1:
        bd:02:20:43:7f:6f:d2:3b:b3:0a:e9:3c:6e:e8:ae:3c:1a:70:
        8e:93:86:77:10:ba:53:e0:5d:60:fc:64:cc:5b:67:91:ff
-----BEGIN CERTIFICATE-----
MIICnzCCAkWgAwIBAgIQSFUzlIjr4M0A3sYA2oYl4TAKBggqhkjOPQQDAjBEMRgw
FgYDVQQKEw9HU00gQXNzb2NpYXRpb24xKDAmBgNVBAMTH0dTTSBBc3NvY2lhdGlv
biAtIFJTUDIgUm9vdCBDSTEwHhcNMjEwNzE1MDAwMDAwWhcNMjQwNzE0MjM1OTU5
WjCBizELMAkGA1UEBhMCQ04xEjAQBgNVBAgMCUd1YW5nRG9uZzERMA8GA1UEBwwI
U2hlblpoZW4xIjAgBgNVBAoMGUxpbmtzIEZpZWxkIE5ldHdvcmtzIEx0ZC4xDzAN
BgNVBAsMBlNBUy1TTTEgMB4GA1UEAwwXcnNwLTAwMDEubGlua3NmaWVsZC5uZXQw
WTATBgcqhkjOPQIBBggqhkjOPQMBBwNCAAQWNX/SFaTLWtAZ7goqligR4ITMBH1w
VcttZncRJ0oX6OTCIOQ84Z9alnyRwKx12UQxGIVM7xmAYNEbPlnsG47do4HQMIHN
MBcGA1UdIAEB/wQNMAswCQYHZ4ESAQIBBDBNBgNVHR8ERjBEMEKgQKA+hjxodHRw
Oi8vZ3NtYS1jcmwuc3ltYXV0aC5jb20vb2ZmbGluZWNhL2dzbWEtcnNwMi1yb290
LWNpMS5jcmwwDgYDVR0PAQH/BAQDAgeAMBMGA1UdEQQMMAqICCsGAQQBg8ERMB0G
A1UdDgQWBBRBXjThB9iHMcy5h4EXZu6ANBm+rDAfBgNVHSMEGDAWgBSBNw9RJdCx
1AjUw7Iy5tJeeVvr+zAKBggqhkjOPQQDAgNIADBFAiEAyfNuA1Q/dEXvQ6QC2r0u
gfLcUXRjpW+uoQk79/hy4b0CIEN/b9I7swrpPG7orjwacI6ThncQulPgXWD8ZMxb
Z5H/
-----END CERTIFICATE-----
