Certificate:
    Data:
        Version: 3 (0x2)
        Serial Number:
            3a:99:13:37:6d:64:d2:45:63:4f:d8:5d:c9:2c:e0:83
        Signature Algorithm: ecdsa-with-SHA256
        Issuer: C=US, O=Entrust, Inc., OU=See www.entrust.net/legal-terms, OU=(c) 2016 Entrust, Inc. - for authorized use only, CN=Entrust eSIM Certification Authority
        Validity
            Not Before: Nov 15 15:03:35 2023 GMT
            Not After : Nov 15 15:03:34 2025 GMT
        Subject: C=FR, L=Courbevoie, O=IDEMIA France, CN=OT M-Connect EWA DP, emailAddress=Connectivity_SRE@idemia.com
        Subject Public Key Info:
            Public Key Algorithm: id-ecPublicKey
                Public-Key: (256 bit)
                pub:
                    04:29:41:f9:d5:29:a9:f0:62:8b:21:6a:2e:e3:62:
                    dc:97:04:74:bb:31:3e:d2:de:0c:cf:b7:a8:a8:fb:
                    5f:85:49:8a:8a:5c:4d:75:71:3a:70:4c:af:d7:4b:
                    52:b9:f9:c0:86:5c:5e:57:1f:01:c6:d6:bc:38:de:
                    db:d0:b5:62:31
                ASN1 OID: prime256v1
                NIST CURVE: P-256
        X509v3 extensions:
            X509v3 Basic Constraints: critical
                CA:FALSE
            X509v3 Subject Key Identifier: 
                EE:B7:52:FD:58:B7:6F:0A:C3:8F:B9:BA:D8:FA:EC:36:EE:64:B2:A6
            X509v3 Authority Key Identifier: 
                16:70:4B:7F:35:1E:36:07:F1:8C:4B:70:00:5C:3A:00:3D:FD:41:4A
            X509v3 CRL Distribution Points: 
                Full Name:
                  URI:http://crl.entrust.net/entesimca.crl
            X509v3 Subject Alternative Name: 
                Registered ID:1.3.6.1.4.1.30703.836685.503.101.101
            X509v3 Key Usage: critical
                Digital Signature
            X509v3 Certificate Policies: critical
                Policy: 2.23.146.1.2.1.4
    Signature Algorithm: ecdsa-with-SHA256
    Signature Value:
        30:46:02:21:00:e4:ca:7f:35:96:98:36:91:20:4e:60:79:e5:
        17:3e:33:e4:b8:f5:92:38:3b:f8:84:d0:2d:f9:82:13:38:fb:
        11:02:21:00:f5:d1:60:c0:12:1a:14:5c:8c:39:62:dd:45:15:
        23:92:de:c2:a3:df:df:e3:33:a0:18:e3:7e:6b:61:35:7e:83
-----BEGIN CERTIFICATE-----
MIIDDDCCArGgAwIBAgIQOpkTN21k0kVjT9hdySzggzAKBggqhkjOPQQDAjCBuTEL
MAkGA1UEBhMCVVMxFjAUBgNVBAoTDUVudHJ1c3QsIEluYy4xKDAmBgNVBAsTH1Nl
ZSB3d3cuZW50cnVzdC5uZXQvbGVnYWwtdGVybXMxOTA3BgNVBAsTMChjKSAyMDE2
IEVudHJ1c3QsIEluYy4gLSBmb3IgYXV0aG9yaXplZCB1c2Ugb25seTEtMCsGA1UE
AxMkRW50cnVzdCBlU0lNIENlcnRpZmljYXRpb24gQXV0aG9yaXR5MB4XDTIzMTEx
NTE1MDMzNVoXDTI1MTExNTE1MDMzNFowgYQxCzAJBgNVBAYTAkZSMRMwEQYDVQQH
EwpDb3VyYmV2b2llMRYwFAYDVQQKEw1JREVNSUEgRnJhbmNlMRwwGgYDVQQDExNP
VCBNLUNvbm5lY3QgRVdBIERQMSowKAYJKoZIhvcNAQkBFhtDb25uZWN0aXZpdHlf
U1JFQGlkZW1pYS5jb20wWTATBgcqhkjOPQIBBggqhkjOPQMBBwNCAAQpQfnVKanw
Yoshai7jYtyXBHS7MT7S3gzPt6io+1+FSYqKXE11cTpwTK/XS1K5+cCGXF5XHwHG
1rw43tvQtWIxo4HNMIHKMAwGA1UdEwEB/wQCMAAwHQYDVR0OBBYEFO63Uv1Yt28K
w4+5utj67DbuZLKmMB8GA1UdIwQYMBaAFBZwS381HjYH8YxLcABcOgA9/UFKMDUG
A1UdHwQuMCwwKqAooCaGJGh0dHA6Ly9jcmwuZW50cnVzdC5uZXQvZW50ZXNpbWNh
LmNybDAaBgNVHREEEzARiA8rBgEEAYHvb7OITYN3ZWUwDgYDVR0PAQH/BAQDAgeA
MBcGA1UdIAEB/wQNMAswCQYHZ4ESAQIBBDAKBggqhkjOPQQDAgNJADBGAiEA5Mp/
NZaYNpEgTmB55Rc+M+S49ZI4O/iE0C35ghM4+xECIQD10WDAEhoUXIw5Yt1FFSOS
3sKj39/jM6AY435rYTV+gw==
-----END CERTIFICATE-----
