Certificate:
    Data:
        Version: 3 (0x2)
        Serial Number: 4 (0x4)
        Signature Algorithm: ecdsa-with-SHA256
        Issuer: C=FR, O=OBERTHUR TECHNOLOGIES, OU=TELECOM, CN=MC4 OT ROOT CI v1
        Validity
            Not Before: Jun 21 00:00:00 2017 GMT
            Not After : Jun 14 23:59:59 2047 GMT
        Subject: C=FR, L=Colombes Cedex, O=Oberthur Technologies, OU=Oberthur Technologies RnD, CN=OT M-Connect DP
        Subject Public Key Info:
            Public Key Algorithm: id-ecPublicKey
                Public-Key: (256 bit)
                pub:
                    04:ed:13:32:51:ef:a1:0e:45:b3:30:6f:6d:3f:7f:
                    57:b7:de:5c:d8:28:e5:dc:d5:c6:29:00:89:2b:42:
                    ac:b8:98:e3:4c:68:8f:be:d6:0f:cb:c3:a9:b2:4a:
                    a5:14:74:8a:81:85:10:e6:55:80:06:85:bc:a6:56:
                    a0:47:e6:78:3f
                ASN1 OID: prime256v1
                NIST CURVE: P-256
        X509v3 extensions:
            X509v3 Authority Key Identifier: 
                CD:6E:60:B7:2D:7A:06:3C:BC:84:62:5B:91:E8:0F:E3:04:06:E1:3E
            X509v3 Subject Key Identifier: 
                80:6B:73:9F:57:B8:5C:0B:B7:20:F1:2C:90:7B:A7:C4:8C:82:4F:FD
            X509v3 Key Usage: critical
                Digital Signature
            X509v3 Certificate Policies: critical
                Policy: 2.23.146.1.2.1.5
            X509v3 Subject Alternative Name: 
                Registered ID:1.3.6.1.4.1.30703.836685.503
    Signature Algorithm: ecdsa-with-SHA256
    Signature Value:
        30:46:02:21:00:c9:f1:db:4b:69:a7:94:f9:2b:75:92:80:8f:
        d0:7a:e7:9b:d0:63:85:21:6e:e8:b4:3b:cc:69:2d:f8:1f:c7:
        a9:02:21:00:c0:e5:03:c9:80:34:90:51:e5:20:53:d2:4e:86:
        3e:d4:b8:b1:ea:df:f6:3f:7f:7c:db:a2:69:3a:13:99:46:60
-----BEGIN CERTIFICATE-----
MIICVzCCAfygAwIBAgIBBDAKBggqhkjOPQQDAjBbMQswCQYDVQQGEwJGUjEeMBwG
A1UEChMVT0JFUlRIVVIgVEVDSE5PTE9HSUVTMRAwDgYDVQQLEwdURUxFQ09NMRow
GAYDVQQDExFNQzQgT1QgUk9PVCBDSSB2MTAeFw0xNzA2MjEwMDAwMDBaFw00NzA2
MTQyMzU5NTlaMIGEMQswCQYDVQQGEwJGUjEXMBUGA1UEBxMOQ29sb21iZXMgQ2Vk
ZXgxHjAcBgNVBAoTFU9iZXJ0aHVyIFRlY2hub2xvZ2llczEiMCAGA1UECxMZT2Jl
cnRodXIgVGVjaG5vbG9naWVzIFJuRDEYMBYGA1UEAxMPT1QgTS1Db25uZWN0IERQ
MFkwEwYHKoZIzj0CAQYIKoZIzj0DAQcDQgAE7RMyUe+hDkWzMG9tP39Xt95c2Cjl
3NXGKQCJK0KsuJjjTGiPvtYPy8OpskqlFHSKgYUQ5lWABoW8plagR+Z4P6OBhjCB
gzAfBgNVHSMEGDAWgBTNbmC3LXoGPLyEYluR6A/jBAbhPjAdBgNVHQ4EFgQUgGtz
n1e4XAu3IPEskHunxIyCT/0wDgYDVR0PAQH/BAQDAgCAMBcGA1UdIAEB/wQNMAsw
CQYHZ4ESAQIBBTAYBgNVHREEETAPiA0rBgEEAYHvb7OITYN3MAoGCCqGSM49BAMC
A0kAMEYCIQDJ8dtLaaeU+St1koCP0Hrnm9BjhSFu6LQ7zGkt+B/HqQIhAMDlA8mA
NJBR5SBT0k6GPtS4serf9j9/fNuiaToTmUZg
-----END CERTIFICATE-----
