Certificate:
    Data:
        Version: 3 (0x2)
        Serial Number:
            68:92:19:f1:21:16:fd:aa:5b:8d:bc:e9:b8:dc:77:0d
        Signature Algorithm: ecdsa-with-SHA256
        Issuer: O=GSM Association, CN=GSM Association - RSP2 Root CI1
        Validity
            Not Before: Nov 30 00:00:00 2023 GMT
            Not After : Nov 29 23:59:59 2026 GMT
        Subject: C=EE, ST=Harjumaa, L=Tallinn, O=1oT OÜ, OU=Subscription Management, CN=PROD SM 1oT SM-DPP - CERT.DPauth.ECDSA
        Subject Public Key Info:
            Public Key Algorithm: id-ecPublicKey
                Public-Key: (256 bit)
                pub:
                    04:c2:2f:46:85:84:0c:c6:f5:d4:fb:ca:79:4b:f1:
                    5f:11:60:67:be:2d:a3:a1:5d:7e:ca:ec:e1:72:70:
                    19:db:f8:ad:0e:d8:c2:ae:a9:d5:e9:65:5b:36:55:
                    b5:75:ef:e8:68:21:cf:c0:24:84:c9:76:28:c6:40:
                    1b:ff:ce:2d:54
                ASN1 OID: prime256v1
                NIST CURVE: P-256
        X509v3 extensions:
            X509v3 CRL Distribution Points: 
                Full Name:
                  URI:http://gsma-crl.symauth.com/offlineca/gsma-rsp2-root-ci1.crl
            X509v3 Key Usage: critical
                Digital Signature
            X509v3 Certificate Policies: critical
                Policy: 2.23.146.1.2.1.4
            X509v3 Subject Alternative Name: 
                Registered ID:1.3.6.1.4.1.53775.1.4
            X509v3 Subject Key Identifier: 
                02:F6:8B:59:D8:43:2D:CB:BE:A6:47:16:26:EC:96:F0:18:C3:80:D5
            X509v3 Authority Key Identifier: 
                81:37:0F:51:25:D0:B1:D4:08:D4:C3:B2:32:E6:D2:5E:79:5B:EB:FB
    Signature Algorithm: ecdsa-with-SHA256
    Signature Value:
        30:46:02:21:00:e8:68:a3:46:bd:96:b9:f6:8c:58:04:e6:0d:
        a0:37:a9:3c:d0:1b:ca:62:f1:ac:5b:12:86:c7:de:b0:58:f5:
        ad:02:21:00:ad:54:0c:b1:ae:1e:ec:04:4b:6c:5d:d2:18:8f:
        a8:81:72:9f:ee:69:be:c0:ac:4f:51:a4:11:25:61:ab:1a:81
-----BEGIN CERTIFICATE-----
MIICrjCCAlOgAwIBAgIQaJIZ8SEW/apbjbzpuNx3DTAKBggqhkjOPQQDAjBEMRgw
FgYDVQQKEw9HU00gQXNzb2NpYXRpb24xKDAmBgNVBAMTH0dTTSBBc3NvY2lhdGlv
biAtIFJTUDIgUm9vdCBDSTEwHhcNMjMxMTMwMDAwMDAwWhcNMjYxMTI5MjM1OTU5
WjCBlzELMAkGA1UEBhMCRUUxETAPBgNVBAgMCEhhcmp1bWFhMRAwDgYDVQQHDAdU
YWxsaW5uMRAwDgYDVQQKDAcxb1QgT8OcMSAwHgYDVQQLDBdTdWJzY3JpcHRpb24g
TWFuYWdlbWVudDEvMC0GA1UEAwwmUFJPRCBTTSAxb1QgU00tRFBQIC0gQ0VSVC5E
UGF1dGguRUNEU0EwWTATBgcqhkjOPQIBBggqhkjOPQMBBwNCAATCL0aFhAzG9dT7
ynlL8V8RYGe+LaOhXX7K7OFycBnb+K0O2MKuqdXpZVs2VbV17+hoIc/AJITJdijG
QBv/zi1Uo4HSMIHPME0GA1UdHwRGMEQwQqBAoD6GPGh0dHA6Ly9nc21hLWNybC5z
eW1hdXRoLmNvbS9vZmZsaW5lY2EvZ3NtYS1yc3AyLXJvb3QtY2kxLmNybDAOBgNV
HQ8BAf8EBAMCB4AwFwYDVR0gAQH/BA0wCzAJBgdngRIBAgEEMBUGA1UdEQQOMAyI
CisGAQQBg6QPAQQwHQYDVR0OBBYEFAL2i1nYQy3LvqZHFibslvAYw4DVMB8GA1Ud
IwQYMBaAFIE3D1El0LHUCNTDsjLm0l55W+v7MAoGCCqGSM49BAMCA0kAMEYCIQDo
aKNGvZa59oxYBOYNoDepPNAbymLxrFsShsfesFj1rQIhAK1UDLGuHuwES2xd0hiP
qIFyn+5pvsCsT1GkESVhqxqB
-----END CERTIFICATE-----
