Certificate:
    Data:
        Version: 3 (0x2)
        Serial Number:
            49:aa:fa:c0:f7:09:0b:95:99:f8:40:c6:05:61:7a:e1
        Signature Algorithm: ecdsa-with-SHA256
        Issuer: O=GSM Association, CN=GSM Association - RSP2 Root CI1
        Validity
            Not Before: Sep 13 00:00:00 2023 GMT
            Not After : Sep 12 23:59:59 2026 GMT
        Subject: C=UK, L=London, O=Monty UK Global Ltd, OU=Monty, CN=*.rsp.instant-connectivity.com
        Subject Public Key Info:
            Public Key Algorithm: id-ecPublicKey
                Public-Key: (256 bit)
                pub:
                    04:16:2f:8a:d6:d1:d9:91:98:fb:90:3c:32:d0:2e:
                    12:68:ca:46:83:b8:1e:e2:b1:ca:e0:26:a3:66:f9:
                    8f:3a:c2:2b:27:54:1d:c8:36:6f:85:80:8d:ef:66:
                    39:13:36:df:0b:5a:7c:00:38:33:55:57:27:af:28:
                    52:37:af:0d:75
                ASN1 OID: prime256v1
                NIST CURVE: P-256
        X509v3 extensions:
            X509v3 CRL Distribution Points: 
                Full Name:
                  URI:http://gsma-crl.symauth.com/offlineca/gsma-rsp2-root-ci1.crl
            X509v3 Key Usage: critical
                Digital Signature
            X509v3 Subject Alternative Name: 
                Registered ID:1.3.6.1.4.1.55352
            X509v3 Certificate Policies: critical
                Policy: 2.23.146.1.2.1.4
            X509v3 Subject Key Identifier: 
                FD:4E:43:4B:28:53:C2:FC:43:30:80:C6:EB:75:44:BD:EC:F5:51:58
            X509v3 Authority Key Identifier: 
                81:37:0F:51:25:D0:B1:D4:08:D4:C3:B2:32:E6:D2:5E:79:5B:EB:FB
    Signature Algorithm: ecdsa-with-SHA256
    Signature Value:
        30:44:02:20:12:cf:ae:9a:0b:b8:41:38:7d:d5:ec:73:9d:ae:
        54:28:c9:57:9b:ab:45:2d:50:80:61:7f:6c:ba:e8:e5:10:7c:
        02:20:29:ea:6d:86:c1:8e:61:c5:35:56:c4:1b:48:77:56:89:
        a5:85:ff:79:66:ad:21:9e:10:59:47:8a:04:2e:84:1d
-----BEGIN CERTIFICATE-----
MIIChzCCAi6gAwIBAgIQSar6wPcJC5WZ+EDGBWF64TAKBggqhkjOPQQDAjBEMRgw
FgYDVQQKEw9HU00gQXNzb2NpYXRpb24xKDAmBgNVBAMTH0dTTSBBc3NvY2lhdGlv
biAtIFJTUDIgUm9vdCBDSTEwHhcNMjMwOTEzMDAwMDAwWhcNMjYwOTEyMjM1OTU5
WjB1MQswCQYDVQQGEwJVSzEPMA0GA1UEBxMGTG9uZG9uMRwwGgYDVQQKExNNb250
eSBVSyBHbG9iYWwgTHRkMQ4wDAYDVQQLEwVNb250eTEnMCUGA1UEAwweKi5yc3Au
aW5zdGFudC1jb25uZWN0aXZpdHkuY29tMFkwEwYHKoZIzj0CAQYIKoZIzj0DAQcD
QgAEFi+K1tHZkZj7kDwy0C4SaMpGg7ge4rHK4CajZvmPOsIrJ1QdyDZvhYCN72Y5
EzbfC1p8ADgzVVcnryhSN68NdaOB0DCBzTBNBgNVHR8ERjBEMEKgQKA+hjxodHRw
Oi8vZ3NtYS1jcmwuc3ltYXV0aC5jb20vb2ZmbGluZWNhL2dzbWEtcnNwMi1yb290
LWNpMS5jcmwwDgYDVR0PAQH/BAQDAgeAMBMGA1UdEQQMMAqICCsGAQQBg7A4MBcG
A1UdIAEB/wQNMAswCQYHZ4ESAQIBBDAdBgNVHQ4EFgQU/U5DSyhTwvxDMIDG63VE
vez1UVgwHwYDVR0jBBgwFoAUgTcPUSXQsdQI1MOyMubSXnlb6/swCgYIKoZIzj0E
AwIDRwAwRAIgEs+umgu4QTh91exzna5UKMlXm6tFLVCAYX9suujlEHwCICnqbYbB
jmHFNVbEG0h3Vomlhf95Zq0hnhBZR4oELoQd
-----END CERTIFICATE-----
