Certificate:
    Data:
        Version: 3 (0x2)
        Serial Number:
            62:4d:9f:11:a0:96:f4:55:81:0a:a8:c6:36:37:50:23
        Signature Algorithm: ecdsa-with-SHA256
        Issuer: O=GSM Association, CN=GSM Association - RSP2 Root CI1
        Validity
            Not Before: Sep  8 00:00:00 2023 GMT
            Not After : Sep  7 23:59:59 2026 GMT
        Subject: C=US, L=Atlanta, O=Giesecke & Devrient Mobile Security America, Inc., OU=Connectivity and Devices, CN=AirOn V4 DP PROD
        Subject Public Key Info:
            Public Key Algorithm: id-ecPublicKey
                Public-Key: (256 bit)
                pub:
                    04:88:06:23:28:be:48:a6:bd:01:7b:1e:6f:c6:1f:
                    75:0a:8b:88:b9:29:a9:f5:37:e7:c7:a8:65:f4:72:
                    e5:29:97:2b:e9:60:7f:a1:70:22:89:75:61:e9:08:
                    da:c7:bf:06:d8:71:b5:b0:cb:a0:7b:43:cb:09:ae:
                    6d:f9:11:fa:c2
                ASN1 OID: prime256v1
                NIST CURVE: P-256
        X509v3 extensions:
            X509v3 Certificate Policies: critical
                Policy: 2.23.146.1.2.1.4
            X509v3 CRL Distribution Points: 
                Full Name:
                  URI:http://gsma-crl.symauth.com/offlineca/gsma-rsp2-root-ci1.crl
            X509v3 Key Usage: critical
                Digital Signature
            X509v3 Subject Alternative Name: 
                Registered ID:1.3.6.1.4.1.11791.104.90.4.4
            X509v3 Subject Key Identifier: 
                88:08:CC:9E:53:CC:16:BA:5F:72:BF:5C:11:D7:47:B7:F7:2A:F7:EE
            X509v3 Authority Key Identifier: 
                81:37:0F:51:25:D0:B1:D4:08:D4:C3:B2:32:E6:D2:5E:79:5B:EB:FB
    Signature Algorithm: ecdsa-with-SHA256
    Signature Value:
        30:45:02:21:00:f8:a5:1d:46:da:0c:cf:ae:03:40:e6:47:ee:
        bf:21:3a:45:e5:a3:e0:86:24:fb:39:2d:5d:39:b5:28:a5:a0:
        d5:02:20:1d:3a:15:f1:9b:bb:78:f7:04:54:fb:96:54:62:91:
        1f:85:f4:99:3e:96:37:cd:0c:67:79:d0:96:e3:48:9c:b9
-----BEGIN CERTIFICATE-----
MIICsDCCAlagAwIBAgIQYk2fEaCW9FWBCqjGNjdQIzAKBggqhkjOPQQDAjBEMRgw
FgYDVQQKEw9HU00gQXNzb2NpYXRpb24xKDAmBgNVBAMTH0dTTSBBc3NvY2lhdGlv
biAtIFJTUDIgUm9vdCBDSTEwHhcNMjMwOTA4MDAwMDAwWhcNMjYwOTA3MjM1OTU5
WjCBmTELMAkGA1UEBhMCVVMxEDAOBgNVBAcTB0F0bGFudGExOjA4BgNVBAoMMUdp
ZXNlY2tlICYgRGV2cmllbnQgTW9iaWxlIFNlY3VyaXR5IEFtZXJpY2EsIEluYy4x
ITAfBgNVBAsTGENvbm5lY3Rpdml0eSBhbmQgRGV2aWNlczEZMBcGA1UEAxMQQWly
T24gVjQgRFAgUFJPRDBZMBMGByqGSM49AgEGCCqGSM49AwEHA0IABIgGIyi+SKa9
AXseb8YfdQqLiLkpqfU358eoZfRy5SmXK+lgf6FwIol1YekI2se/BthxtbDLoHtD
ywmubfkR+sKjgdMwgdAwFwYDVR0gAQH/BA0wCzAJBgdngRIBAgEEME0GA1UdHwRG
MEQwQqBAoD6GPGh0dHA6Ly9nc21hLWNybC5zeW1hdXRoLmNvbS9vZmZsaW5lY2Ev
Z3NtYS1yc3AyLXJvb3QtY2kxLmNybDAOBgNVHQ8BAf8EBAMCB4AwFgYDVR0RBA8w
DYgLKwYBBAHcD2haBAQwHQYDVR0OBBYEFIgIzJ5TzBa6X3K/XBHXR7f3KvfuMB8G
A1UdIwQYMBaAFIE3D1El0LHUCNTDsjLm0l55W+v7MAoGCCqGSM49BAMCA0gAMEUC
IQD4pR1G2gzPrgNA5kfuvyE6ReWj4IYk+zktXTm1KKWg1QIgHToV8Zu7ePcEVPuW
VGKRH4X0mT6WN80MZ3nQluNInLk=
-----END CERTIFICATE-----
