Certificate:
    Data:
        Version: 3 (0x2)
        Serial Number:
            02:76:b0:b7:03:d7:8b:52:63:28:7c:a1:1f:a7:6b:83
        Signature Algorithm: ecdsa-with-SHA256
        Issuer: O=Symantec Corporation, CN=Symantec Corporation RSP Test Root CA - For Test Purposes Only
        Validity
            Not Before: Mar  8 00:00:00 2022 GMT
            Not After : Mar  7 23:59:59 2025 GMT
        Subject: CN=POTIN, O=POTIN-TECH
        Subject Public Key Info:
            Public Key Algorithm: id-ecPublicKey
                Public-Key: (256 bit)
                pub:
                    04:41:ae:cb:c9:9b:65:e9:a1:44:7e:a3:b5:29:ba:
                    d8:cf:dd:79:52:4f:fc:f5:63:69:cb:93:09:d8:9a:
                    36:bd:2c:41:d7:27:ef:32:29:ca:f4:89:71:9b:fe:
                    15:bc:a5:63:60:6f:d0:16:17:77:6f:73:2c:1a:6c:
                    44:dd:20:cf:96
                ASN1 OID: prime256v1
                NIST CURVE: P-256
        X509v3 extensions:
            X509v3 Key Usage: critical
                Digital Signature
            X509v3 Subject Key Identifier: 
                54:28:1F:7E:93:8F:9C:39:74:21:37:6E:EC:8F:C3:36:C9:70:9C:CF
            X509v3 Subject Alternative Name: 
                Registered ID:1.3.6.1.4.1.51427.101.21
            X509v3 Certificate Policies: critical
                Policy: 2.23.146.1.2.1.5
            X509v3 CRL Distribution Points: 
                Full Name:
                  URI:http://pki-crl.symauth.com/ca_a3dc2e3fea7708a11c889386d9d3a76f/LatestCRL.crl
            X509v3 Authority Key Identifier: 
                66:5A:14:33:D6:7C:1A:2C:5D:B8:B5:2C:96:7F:10:A0:57:BA:5C:B2
    Signature Algorithm: ecdsa-with-SHA256
    Signature Value:
        30:46:02:21:00:8c:ac:7e:40:2a:78:a9:65:16:af:73:a8:9d:
        ef:d0:05:87:4c:e6:5a:63:b7:31:64:3e:fb:9d:ef:99:9a:45:
        c2:02:21:00:d9:9c:a3:5f:e4:f7:83:18:96:9d:01:d5:0f:0d:
        2c:ae:ab:ec:04:f1:b5:06:48:5d:8d:f0:2a:68:76:96:97:e7
-----BEGIN CERTIFICATE-----
MIICbzCCAhSgAwIBAgIQAnawtwPXi1JjKHyhH6drgzAKBggqhkjOPQQDAjBoMR0w
GwYDVQQKExRTeW1hbnRlYyBDb3Jwb3JhdGlvbjFHMEUGA1UEAxM+U3ltYW50ZWMg
Q29ycG9yYXRpb24gUlNQIFRlc3QgUm9vdCBDQSAtIEZvciBUZXN0IFB1cnBvc2Vz
IE9ubHkwHhcNMjIwMzA4MDAwMDAwWhcNMjUwMzA3MjM1OTU5WjAlMQ4wDAYDVQQD
DAVQT1RJTjETMBEGA1UECgwKUE9USU4tVEVDSDBZMBMGByqGSM49AgEGCCqGSM49
AwEHA0IABEGuy8mbZemhRH6jtSm62M/deVJP/PVjacuTCdiaNr0sQdcn7zIpyvSJ
cZv+FbylY2Bv0BYXd29zLBpsRN0gz5ajgeIwgd8wDgYDVR0PAQH/BAQDAgeAMB0G
A1UdDgQWBBRUKB9+k4+cOXQhN27sj8M2yXCczzAVBgNVHREEDjAMiAorBgEEAYOR
Y2UVMBcGA1UdIAEB/wQNMAswCQYHZ4ESAQIBBTBdBgNVHR8EVjBUMFKgUKBOhkxo
dHRwOi8vcGtpLWNybC5zeW1hdXRoLmNvbS9jYV9hM2RjMmUzZmVhNzcwOGExMWM4
ODkzODZkOWQzYTc2Zi9MYXRlc3RDUkwuY3JsMB8GA1UdIwQYMBaAFGZaFDPWfBos
Xbi1LJZ/EKBXulyyMAoGCCqGSM49BAMCA0kAMEYCIQCMrH5AKnipZRavc6id79AF
h0zmWmO3MWQ++53vmZpFwgIhANmco1/k94MYlp0B1Q8NLK6r7ATxtQZIXY3wKmh2
lpfn
-----END CERTIFICATE-----
