Certificate:
    Data:
        Version: 3 (0x2)
        Serial Number: 256 (0x100)
        Signature Algorithm: ecdsa-with-SHA256
        Issuer: CN=Test CI, OU=TESTCERT, O=RSPTEST, C=IT
        Validity
            Not Before: Apr  1 08:31:30 2020 GMT
            Not After : Mar 30 08:31:30 2030 GMT
        Subject: O=ACME, CN=TEST SM-DP+
        Subject Public Key Info:
            Public Key Algorithm: id-ecPublicKey
                Public-Key: (256 bit)
                pub:
                    04:4d:fe:d4:f4:69:47:91:bf:16:95:ce:a0:30:7a:
                    35:b4:18:01:96:95:38:7b:b7:5b:7d:24:47:b6:b5:
                    20:9f:04:45:ae:4e:5e:52:1c:d1:38:88:d7:5f:e0:
                    7c:85:80:22:2a:e2:0d:ba:ac:1d:77:cd:76:30:49:
                    93:42:1b:d7:39
                ASN1 OID: prime256v1
                NIST CURVE: P-256
        X509v3 extensions:
            X509v3 Authority Key Identifier: 
                F5:41:72:BD:F9:8A:95:D6:5C:BE:B8:8A:38:A1:C1:1D:80:0A:85:C3
            X509v3 Subject Key Identifier: 
                BD:5A:82:CC:1A:96:60:21:18:BA:75:60:A1:FF:83:A7:8B:21:0B:E5
            X509v3 Subject Alternative Name: 
                Registered ID:2.999.10
            X509v3 Key Usage: critical
                Digital Signature
            X509v3 Certificate Policies: critical
                Policy: 2.23.146.1.2.1.4
            X509v3 CRL Distribution Points: 
                Full Name:
                  URI:http://ci.test.example.com/CRL-A.crl
                Full Name:
                  URI:http://ci.test.example.com/CRL-B.crl
    Signature Algorithm: ecdsa-with-SHA256
    Signature Value:
        30:44:02:20:08:23:ee:7d:fa:5e:3d:d0:78:38:e9:30:f8:1b:
        c3:4a:e9:9f:06:cb:a3:59:27:fe:9e:50:2c:46:4d:c1:fe:e3:
        02:20:0d:2d:40:87:db:01:a5:38:2d:21:69:0a:c0:48:8b:15:
        06:7f:b2:46:0d:33:63:32:44:6c:a9:9f:08:a8:a4:ef
-----BEGIN CERTIFICATE-----
MIICODCCAd+gAwIBAgICAQAwCgYIKoZIzj0EAwIwRDEQMA4GA1UEAwwHVGVzdCBD
STERMA8GA1UECwwIVEVTVENFUlQxEDAOBgNVBAoMB1JTUFRFU1QxCzAJBgNVBAYT
AklUMB4XDTIwMDQwMTA4MzEzMFoXDTMwMDMzMDA4MzEzMFowJTENMAsGA1UECgwE
QUNNRTEUMBIGA1UEAwwLVEVTVCBTTS1EUCswWTATBgcqhkjOPQIBBggqhkjOPQMB
BwNCAARN/tT0aUeRvxaVzqAwejW0GAGWlTh7t1t9JEe2tSCfBEWuTl5SHNE4iNdf
4HyFgCIq4g26rB13zXYwSZNCG9c5o4HfMIHcMB8GA1UdIwQYMBaAFPVBcr35ipXW
XL64ijihwR2ACoXDMB0GA1UdDgQWBBS9WoLMGpZgIRi6dWCh/4OniyEL5TAOBgNV
HREEBzAFiAOINwowDgYDVR0PAQH/BAQDAgeAMBcGA1UdIAEB/wQNMAswCQYHZ4ES
AQIBBDBhBgNVHR8EWjBYMCqgKKAmhiRodHRwOi8vY2kudGVzdC5leGFtcGxlLmNv
bS9DUkwtQS5jcmwwKqAooCaGJGh0dHA6Ly9jaS50ZXN0LmV4YW1wbGUuY29tL0NS
TC1CLmNybDAKBggqhkjOPQQDAgNHADBEAiAII+59+l490Hg46TD4G8NK6Z8Gy6NZ
J/6eUCxGTcH+4wIgDS1Ah9sBpTgtIWkKwEiLFQZ/skYNM2MyRGypnwiopO8=
-----END CERTIFICATE-----
