Certificate:
    Data:
        Version: 3 (0x2)
        Serial Number:
            16:92:07:18:b2:6f:6a:03:da:51:c7:13:89:95:87:89
        Signature Algorithm: ecdsa-with-SHA256
        Issuer: O=GSM Association, CN=GSM Association - RSP2 Root CI1
        Validity
            Not Before: Sep  2 00:00:00 2021 GMT
            Not After : Sep  1 23:59:59 2024 GMT
        Subject: C=CN, ST=GUANGDONG, L=ZHUHAI, O=Eastcompeace Technology Co., Ltd., OU=Eastcompeace Technology Co., Ltd., CN=Eastcompeace RSP
        Subject Public Key Info:
            Public Key Algorithm: id-ecPublicKey
                Public-Key: (256 bit)
                pub:
                    04:86:01:9d:81:20:be:ad:40:37:3c:03:93:b3:3c:
                    8c:1a:79:b9:6c:67:ef:09:15:8f:55:d7:54:06:14:
                    c6:86:b2:cb:b6:c6:5d:ad:bf:3c:fa:54:4a:e2:b6:
                    a5:cc:76:60:ea:af:7f:c6:5f:80:48:fc:6b:be:64:
                    65:bd:14:84:2d
                ASN1 OID: prime256v1
                NIST CURVE: P-256
        X509v3 extensions:
            X509v3 Certificate Policies: critical
                Policy: 2.23.146.1.2.1.4
            X509v3 CRL Distribution Points: 
                Full Name:
                  URI:http://gsma-crl.symauth.com/offlineca/gsma-rsp2-root-ci1.crl
            X509v3 Key Usage: critical
                Digital Signature
            X509v3 Subject Alternative Name: 
                Registered ID:1.3.6.1.4.1.50461.1
            X509v3 Subject Key Identifier: 
                31:F7:A5:05:7F:6F:57:D5:56:2B:C6:3A:CF:2C:66:BE:B1:FA:FE:A7
            X509v3 Authority Key Identifier: 
                81:37:0F:51:25:D0:B1:D4:08:D4:C3:B2:32:E6:D2:5E:79:5B:EB:FB
    Signature Algorithm: ecdsa-with-SHA256
    Signature Value:
        30:44:02:20:01:d3:bf:01:0c:76:22:9b:7e:7b:c1:e7:a1:98:
        0f:13:50:39:08:1b:ab:7a:88:d1:a3:22:55:c3:48:07:9a:21:
        02:20:14:a3:62:39:5b:da:b3:8c:09:9c:f3:f4:1e:23:a3:39:
        df:de:9f:20:3e:49:00:02:40:56:ae:26:61:53:7a:29
-----BEGIN CERTIFICATE-----
MIICuTCCAmCgAwIBAgIQFpIHGLJvagPaUccTiZWHiTAKBggqhkjOPQQDAjBEMRgw
FgYDVQQKEw9HU00gQXNzb2NpYXRpb24xKDAmBgNVBAMTH0dTTSBBc3NvY2lhdGlv
biAtIFJTUDIgUm9vdCBDSTEwHhcNMjEwOTAyMDAwMDAwWhcNMjQwOTAxMjM1OTU5
WjCBpTELMAkGA1UEBhMCQ04xEjAQBgNVBAgMCUdVQU5HRE9ORzEPMA0GA1UEBwwG
WkhVSEFJMSowKAYDVQQKDCFFYXN0Y29tcGVhY2UgVGVjaG5vbG9neSBDby4sIEx0
ZC4xKjAoBgNVBAsMIUVhc3Rjb21wZWFjZSBUZWNobm9sb2d5IENvLiwgTHRkLjEZ
MBcGA1UEAwwQRWFzdGNvbXBlYWNlIFJTUDBZMBMGByqGSM49AgEGCCqGSM49AwEH
A0IABIYBnYEgvq1ANzwDk7M8jBp5uWxn7wkVj1XXVAYUxoayy7bGXa2/PPpUSuK2
pcx2YOqvf8ZfgEj8a75kZb0UhC2jgdEwgc4wFwYDVR0gAQH/BA0wCzAJBgdngRIB
AgEEME0GA1UdHwRGMEQwQqBAoD6GPGh0dHA6Ly9nc21hLWNybC5zeW1hdXRoLmNv
bS9vZmZsaW5lY2EvZ3NtYS1yc3AyLXJvb3QtY2kxLmNybDAOBgNVHQ8BAf8EBAMC
B4AwFAYDVR0RBA0wC4gJKwYBBAGDih0BMB0GA1UdDgQWBBQx96UFf29X1VYrxjrP
LGa+sfr+pzAfBgNVHSMEGDAWgBSBNw9RJdCx1AjUw7Iy5tJeeVvr+zAKBggqhkjO
PQQDAgNHADBEAiAB078BDHYim357weehmA8TUDkIG6t6iNGjIlXDSAeaIQIgFKNi
OVvas4wJnPP0HiOjOd/enyA+SQACQFauJmFTeik=
-----END CERTIFICATE-----
