Certificate:
    Data:
        Version: 3 (0x2)
        Serial Number:
            5a:52:e6:ef:2a:5b:8a:7d:44:d2:dd:b4:8d:1d:da:a2
        Signature Algorithm: ecdsa-with-SHA256
        Issuer: O=GSM Association, CN=GSM Association - RSP2 Root CI1
        Validity
            Not Before: Jan 31 00:00:00 2024 GMT
            Not After : Jan 30 23:59:59 2027 GMT
        Subject: C=RU, L=Nizhny Novgorod, O=NovaCard JSC, CN=rsp.novacard.ru
        Subject Public Key Info:
            Public Key Algorithm: id-ecPublicKey
                Public-Key: (256 bit)
                pub:
                    04:df:03:aa:fb:13:02:18:cc:b2:cd:18:62:54:b0:
                    70:6c:ea:bb:16:c4:10:a9:c7:ee:6e:cd:94:c6:80:
                    f5:cf:00:df:8c:03:84:71:1a:a9:8c:20:fa:05:c7:
                    be:a4:e8:94:77:91:13:ec:1a:28:6e:c1:4e:cd:e1:
                    d8:d0:1b:73:e6
                ASN1 OID: prime256v1
                NIST CURVE: P-256
        X509v3 extensions:
            X509v3 Subject Key Identifier: 
                4A:9E:91:23:2A:90:3E:A2:BC:4D:54:FE:32:A9:56:8A:70:09:A9:34
            X509v3 Certificate Policies: critical
                Policy: 2.23.146.1.2.1.4
            X509v3 CRL Distribution Points: 
                Full Name:
                  URI:http://gsma-crl.symauth.com/offlineca/gsma-rsp2-root-ci1.crl
            X509v3 Key Usage: critical
                Digital Signature
            X509v3 Subject Alternative Name: 
                Registered ID:1.2.643.6.82.836685.503.1.101
            X509v3 Authority Key Identifier: 
                81:37:0F:51:25:D0:B1:D4:08:D4:C3:B2:32:E6:D2:5E:79:5B:EB:FB
    Signature Algorithm: ecdsa-with-SHA256
    Signature Value:
        30:45:02:21:00:87:f0:e6:3f:71:7e:14:34:a0:62:8a:93:31:
        c6:80:58:be:0d:df:29:f2:e1:ea:db:10:32:99:bf:d6:cb:44:
        7d:02:20:76:1a:bf:f3:ac:fa:96:84:c0:71:13:55:ab:cb:4e:
        7d:fe:b4:44:eb:a7:44:7c:ce:4e:80:9b:ed:11:95:22:fb
-----BEGIN CERTIFICATE-----
MIICbzCCAhWgAwIBAgIQWlLm7ypbin1E0t20jR3aojAKBggqhkjOPQQDAjBEMRgw
FgYDVQQKEw9HU00gQXNzb2NpYXRpb24xKDAmBgNVBAMTH0dTTSBBc3NvY2lhdGlv
biAtIFJTUDIgUm9vdCBDSTEwHhcNMjQwMTMxMDAwMDAwWhcNMjcwMTMwMjM1OTU5
WjBYMQswCQYDVQQGEwJSVTEYMBYGA1UEBwwPTml6aG55IE5vdmdvcm9kMRUwEwYD
VQQKDAxOb3ZhQ2FyZCBKU0MxGDAWBgNVBAMMD3JzcC5ub3ZhY2FyZC5ydTBZMBMG
ByqGSM49AgEGCCqGSM49AwEHA0IABN8DqvsTAhjMss0YYlSwcGzquxbEEKnH7m7N
lMaA9c8A34wDhHEaqYwg+gXHvqTolHeRE+waKG7BTs3h2NAbc+ajgdQwgdEwHQYD
VR0OBBYEFEqekSMqkD6ivE1U/jKpVopwCak0MBcGA1UdIAEB/wQNMAswCQYHZ4ES
AQIBBDBNBgNVHR8ERjBEMEKgQKA+hjxodHRwOi8vZ3NtYS1jcmwuc3ltYXV0aC5j
b20vb2ZmbGluZWNhL2dzbWEtcnNwMi1yb290LWNpMS5jcmwwDgYDVR0PAQH/BAQD
AgeAMBcGA1UdEQQQMA6IDCqFAwZSs4hNg3cBZTAfBgNVHSMEGDAWgBSBNw9RJdCx
1AjUw7Iy5tJeeVvr+zAKBggqhkjOPQQDAgNIADBFAiEAh/DmP3F+FDSgYoqTMcaA
WL4N3yny4erbEDKZv9bLRH0CIHYav/Os+paEwHETVavLTn3+tETrp0R8zk6Am+0R
lSL7
-----END CERTIFICATE-----
