Certificate:
    Data:
        Version: 3 (0x2)
        Serial Number:
            51:36:fe:47:76:99:60:df:03:eb:69:ac:4a:de:ea:10
        Signature Algorithm: ecdsa-with-SHA256
        Issuer: O=Symantec Corporation, CN=Symantec Corporation RSP Test Root CA - For Test Purposes Only
        Validity
            Not Before: Mar 20 00:00:00 2024 GMT
            Not After : Mar 20 23:59:59 2027 GMT
        Subject: CN=1GLOBAL SM-DP+, O=TP Global Operations Limited
        Subject Public Key Info:
            Public Key Algorithm: id-ecPublicKey
                Public-Key: (256 bit)
                pub:
                    04:ca:d0:05:cb:43:a5:22:5a:bb:2f:f8:0c:62:a3:
                    4b:f2:f3:44:f3:35:8b:22:03:84:be:29:86:34:cb:
                    db:ab:e9:e8:6e:b6:31:20:d7:9f:5d:3b:f5:f2:0d:
                    86:15:d0:a1:f8:39:66:2e:77:77:11:b4:e7:65:02:
                    1a:a3:f8:d2:dd
                ASN1 OID: prime256v1
                NIST CURVE: P-256
        X509v3 extensions:
            X509v3 Key Usage: critical
                Digital Signature
            X509v3 Subject Key Identifier: 
                72:C0:AF:A8:7D:98:5A:BB:85:56:96:03:32:3C:91:D6:FB:10:4A:92
            X509v3 Subject Alternative Name: 
                Registered ID:1.3.6.1.4.1.30277.1.1.2
            X509v3 Certificate Policies: critical
                Policy: 2.23.146.1.2.1.4
            X509v3 CRL Distribution Points: 
                Full Name:
                  URI:http://pki-crl.symauth.com/ca_a3dc2e3fea7708a11c889386d9d3a76f/LatestCRL.crl
            X509v3 Authority Key Identifier: 
                66:5A:14:33:D6:7C:1A:2C:5D:B8:B5:2C:96:7F:10:A0:57:BA:5C:B2
    Signature Algorithm: ecdsa-with-SHA256
    Signature Value:
        30:44:02:20:7f:94:cd:b2:f1:47:0f:9c:1a:89:c9:41:3b:0d:
        b7:1b:ec:fd:f5:e4:f0:4a:e9:e5:5e:a4:f9:be:50:a4:da:fb:
        02:20:13:fc:3d:30:b8:70:ae:4e:9b:f3:c8:4f:94:8c:c3:ab:
        65:2a:94:1e:e6:d3:84:b4:3d:5a:4f:bd:3c:e0:ef:ed
-----BEGIN CERTIFICATE-----
MIICiTCCAjCgAwIBAgIQUTb+R3aZYN8D62msSt7qEDAKBggqhkjOPQQDAjBoMR0w
GwYDVQQKExRTeW1hbnRlYyBDb3Jwb3JhdGlvbjFHMEUGA1UEAxM+U3ltYW50ZWMg
Q29ycG9yYXRpb24gUlNQIFRlc3QgUm9vdCBDQSAtIEZvciBUZXN0IFB1cnBvc2Vz
IE9ubHkwHhcNMjQwMzIwMDAwMDAwWhcNMjcwMzIwMjM1OTU5WjBAMRcwFQYDVQQD
DA4xR0xPQkFMIFNNLURQKzElMCMGA1UECgwcVFAgR2xvYmFsIE9wZXJhdGlvbnMg
TGltaXRlZDBZMBMGByqGSM49AgEGCCqGSM49AwEHA0IABMrQBctDpSJauy/4DGKj
S/LzRPM1iyIDhL4phjTL26vp6G62MSDXn1079fINhhXQofg5Zi53dxG052UCGqP4
0t2jgeMwgeAwDgYDVR0PAQH/BAQDAgeAMB0GA1UdDgQWBBRywK+ofZhau4VWlgMy
PJHW+xBKkjAWBgNVHREEDzANiAsrBgEEAYHsRQEBAjAXBgNVHSABAf8EDTALMAkG
B2eBEgECAQQwXQYDVR0fBFYwVDBSoFCgToZMaHR0cDovL3BraS1jcmwuc3ltYXV0
aC5jb20vY2FfYTNkYzJlM2ZlYTc3MDhhMTFjODg5Mzg2ZDlkM2E3NmYvTGF0ZXN0
Q1JMLmNybDAfBgNVHSMEGDAWgBRmWhQz1nwaLF24tSyWfxCgV7pcsjAKBggqhkjO
PQQDAgNHADBEAiB/lM2y8UcPnBqJyUE7Dbcb7P315PBK6eVepPm+UKTa+wIgE/w9
MLhwrk6b88hPlIzDq2UqlB7m04S0PVpPvTzg7+0=
-----END CERTIFICATE-----
