Certificate:
    Data:
        Version: 3 (0x2)
        Serial Number:
            10:5b:8e:c9:a2:34:8d:ed:d5:ce:ba:80:09:43:a0:d0
        Signature Algorithm: ecdsa-with-SHA256
        Issuer: O=GSM Association, CN=GSM Association - RSP2 Root CI1
        Validity
            Not Before: May  4 00:00:00 2022 GMT
            Not After : May  3 23:59:59 2024 GMT
        Subject: C=GB, L=London, O=Truphone LTD, OU=LDN_Prod, CN=Truphone SM-DP+
        Subject Public Key Info:
            Public Key Algorithm: id-ecPublicKey
                Public-Key: (256 bit)
                pub:
                    04:74:1f:44:7f:b9:e2:54:64:6a:b5:2a:30:57:f0:
                    c6:a3:4c:0e:71:a1:44:5b:3f:61:43:7b:7e:6e:be:
                    fb:20:63:f3:66:18:e5:53:db:33:7c:98:89:1b:2c:
                    88:eb:12:6d:77:38:ba:14:d6:b5:64:f9:e3:d4:94:
                    32:6f:a3:fd:93
                ASN1 OID: prime256v1
                NIST CURVE: P-256
        X509v3 extensions:
            X509v3 Certificate Policies: critical
                Policy: 2.23.146.1.2.1.4
            X509v3 CRL Distribution Points: 
                Full Name:
                  URI:http://gsma-crl.symauth.com/offlineca/gsma-rsp2-root-ci1.crl
            X509v3 Key Usage: critical
                Digital Signature
            X509v3 Subject Alternative Name: 
                Registered ID:1.3.6.1.4.1.30277.1.1.1
            X509v3 Subject Key Identifier: 
                48:00:5B:EF:0F:7F:DF:67:15:40:2C:95:76:6F:88:E1:2B:0E:6C:12
            X509v3 Authority Key Identifier: 
                81:37:0F:51:25:D0:B1:D4:08:D4:C3:B2:32:E6:D2:5E:79:5B:EB:FB
    Signature Algorithm: ecdsa-with-SHA256
    Signature Value:
        30:45:02:20:1e:03:fc:83:2e:3b:6b:0a:e1:61:80:ed:01:d1:
        cf:8e:58:b8:9d:fa:61:6c:bf:0f:04:28:e3:ad:29:98:9c:f7:
        02:21:00:b7:68:9a:ff:ca:fa:df:03:29:5c:1e:80:fd:61:9f:
        3b:31:d5:3e:67:ea:93:78:f1:72:20:37:40:16:95:26:b1
-----BEGIN CERTIFICATE-----
MIICeDCCAh6gAwIBAgIQEFuOyaI0je3VzrqACUOg0DAKBggqhkjOPQQDAjBEMRgw
FgYDVQQKEw9HU00gQXNzb2NpYXRpb24xKDAmBgNVBAMTH0dTTSBBc3NvY2lhdGlv
biAtIFJTUDIgUm9vdCBDSTEwHhcNMjIwNTA0MDAwMDAwWhcNMjQwNTAzMjM1OTU5
WjBiMQswCQYDVQQGEwJHQjEPMA0GA1UEBxMGTG9uZG9uMRUwEwYDVQQKEwxUcnVw
aG9uZSBMVEQxETAPBgNVBAsMCExETl9Qcm9kMRgwFgYDVQQDEw9UcnVwaG9uZSBT
TS1EUCswWTATBgcqhkjOPQIBBggqhkjOPQMBBwNCAAR0H0R/ueJUZGq1KjBX8Maj
TA5xoURbP2FDe35uvvsgY/NmGOVT2zN8mIkbLIjrEm13OLoU1rVk+ePUlDJvo/2T
o4HTMIHQMBcGA1UdIAEB/wQNMAswCQYHZ4ESAQIBBDBNBgNVHR8ERjBEMEKgQKA+
hjxodHRwOi8vZ3NtYS1jcmwuc3ltYXV0aC5jb20vb2ZmbGluZWNhL2dzbWEtcnNw
Mi1yb290LWNpMS5jcmwwDgYDVR0PAQH/BAQDAgeAMBYGA1UdEQQPMA2ICysGAQQB
gexFAQEBMB0GA1UdDgQWBBRIAFvvD3/fZxVALJV2b4jhKw5sEjAfBgNVHSMEGDAW
gBSBNw9RJdCx1AjUw7Iy5tJeeVvr+zAKBggqhkjOPQQDAgNIADBFAiAeA/yDLjtr
CuFhgO0B0c+OWLid+mFsvw8EKOOtKZic9wIhALdomv/K+t8DKVwegP1hnzsx1T5n
6pN48XIgN0AWlSax
-----END CERTIFICATE-----
