Certificate:
    Data:
        Version: 3 (0x2)
        Serial Number:
            13:ae:5e:1b:77:61:e7:83:e6:1e:39:91:29:5a:b5:3d
        Signature Algorithm: ecdsa-with-SHA256
        Issuer: O=GSM Association, CN=GSM Association - RSP2 Root CI1
        Validity
            Not Before: Jun 21 00:00:00 2023 GMT
            Not After : Jun 20 23:59:59 2026 GMT
        Subject: C=DE, L=Frankfurt, O=Thales SA, OU=IT, CN=GCP EW3 PROD SMDS
        Subject Public Key Info:
            Public Key Algorithm: id-ecPublicKey
                Public-Key: (256 bit)
                pub:
                    04:ee:a2:ce:e2:a6:cb:f9:18:4a:bb:31:e3:60:40:
                    c8:f9:25:bf:58:a4:9d:19:58:98:0b:2c:0f:67:71:
                    18:77:8a:33:e5:07:d8:49:a0:0e:9a:39:79:1a:34:
                    f6:c7:e9:79:d1:20:fe:f5:c7:dc:0e:82:ed:c5:93:
                    a3:29:e1:c7:3b
                ASN1 OID: prime256v1
                NIST CURVE: P-256
        X509v3 extensions:
            X509v3 Subject Alternative Name: 
                Registered ID:2.23.146.1.901.2
            X509v3 Subject Key Identifier: 
                A9:DD:CA:9D:22:B0:6A:BF:DC:91:A7:67:72:85:DC:E1:72:D8:00:6F
            X509v3 Certificate Policies: critical
                Policy: 2.23.146.1.2.1.7
            X509v3 CRL Distribution Points: 
                Full Name:
                  URI:http://gsma-crl.symauth.com/offlineca/gsma-rsp2-root-ci1.crl
            X509v3 Key Usage: critical
                Digital Signature
            X509v3 Authority Key Identifier: 
                81:37:0F:51:25:D0:B1:D4:08:D4:C3:B2:32:E6:D2:5E:79:5B:EB:FB
    Signature Algorithm: ecdsa-with-SHA256
    Signature Value:
        30:45:02:20:61:fa:c6:71:0a:d6:20:03:25:eb:f3:76:cf:7e:
        cf:6b:33:ee:d9:e4:70:f0:7f:68:84:30:ce:4a:39:c5:2c:3e:
        02:21:00:ee:a6:66:04:c0:15:d6:08:e6:db:7c:dd:a3:87:46:
        af:c5:44:d9:c8:2a:6a:4e:2d:a8:08:16:4c:2e:99:53:20
-----BEGIN CERTIFICATE-----
MIICcDCCAhagAwIBAgIQE65eG3dh54PmHjmRKVq1PTAKBggqhkjOPQQDAjBEMRgw
FgYDVQQKEw9HU00gQXNzb2NpYXRpb24xKDAmBgNVBAMTH0dTTSBBc3NvY2lhdGlv
biAtIFJTUDIgUm9vdCBDSTEwHhcNMjMwNjIxMDAwMDAwWhcNMjYwNjIwMjM1OTU5
WjBeMQswCQYDVQQGEwJERTESMBAGA1UEBwwJRnJhbmtmdXJ0MRIwEAYDVQQKDAlU
aGFsZXMgU0ExCzAJBgNVBAsMAklUMRowGAYDVQQDDBFHQ1AgRVczIFBST0QgU01E
UzBZMBMGByqGSM49AgEGCCqGSM49AwEHA0IABO6izuKmy/kYSrsx42BAyPklv1ik
nRlYmAssD2dxGHeKM+UH2EmgDpo5eRo09sfpedEg/vXH3A6C7cWToynhxzujgc8w
gcwwEgYDVR0RBAswCYgHZ4ESAYcFAjAdBgNVHQ4EFgQUqd3KnSKwar/ckadncoXc
4XLYAG8wFwYDVR0gAQH/BA0wCzAJBgdngRIBAgEHME0GA1UdHwRGMEQwQqBAoD6G
PGh0dHA6Ly9nc21hLWNybC5zeW1hdXRoLmNvbS9vZmZsaW5lY2EvZ3NtYS1yc3Ay
LXJvb3QtY2kxLmNybDAOBgNVHQ8BAf8EBAMCB4AwHwYDVR0jBBgwFoAUgTcPUSXQ
sdQI1MOyMubSXnlb6/swCgYIKoZIzj0EAwIDSAAwRQIgYfrGcQrWIAMl6/N2z37P
azPu2eRw8H9ohDDOSjnFLD4CIQDupmYEwBXWCObbfN2jh0avxUTZyCpqTi2oCBZM
LplTIA==
-----END CERTIFICATE-----
