Certificate:
    Data:
        Version: 3 (0x2)
        Serial Number:
            0e:ba:0e:04:c7:34:da:1a:b7:b7:4f:fa:c4:dc:f0:e1
        Signature Algorithm: ecdsa-with-SHA256
        Issuer: O=GSM Association, CN=GSM Association - RSP2 Root CI1
        Validity
            Not Before: Aug 25 00:00:00 2021 GMT
            Not After : Aug 24 23:59:59 2024 GMT
        Subject: C=GB, ST=County Antrim, L=Belfast, O=Kigen (UK) Ltd., CN=smdp-plus-0.eu.cd.rsp.kigen.com
        Subject Public Key Info:
            Public Key Algorithm: id-ecPublicKey
                Public-Key: (256 bit)
                pub:
                    04:94:9b:45:73:c8:d0:8a:34:f6:66:4e:94:d1:18:
                    3f:97:44:4e:7f:8e:9e:d8:85:40:f2:be:91:f1:c1:
                    ee:8b:fd:89:38:28:03:6a:a3:c1:b6:db:2d:a3:d2:
                    f1:46:8d:c1:c2:f3:9a:b2:cb:13:4c:9b:eb:20:7f:
                    b5:e0:69:e0:39
                ASN1 OID: prime256v1
                NIST CURVE: P-256
        X509v3 extensions:
            X509v3 Certificate Policies: critical
                Policy: 2.23.146.1.2.1.4
            X509v3 CRL Distribution Points: 
                Full Name:
                  URI:http://gsma-crl.symauth.com/offlineca/gsma-rsp2-root-ci1.crl
            X509v3 Key Usage: critical
                Digital Signature
            X509v3 Subject Alternative Name: 
                Registered ID:1.3.6.1.4.1.56723.1.2.1.1.1
            X509v3 Subject Key Identifier: 
                18:F8:37:22:05:A8:5A:40:93:CA:9C:D5:D6:F8:2E:45:8A:E4:62:C5
            X509v3 Authority Key Identifier: 
                81:37:0F:51:25:D0:B1:D4:08:D4:C3:B2:32:E6:D2:5E:79:5B:EB:FB
    Signature Algorithm: ecdsa-with-SHA256
    Signature Value:
        30:46:02:21:00:e7:4c:3b:12:26:98:b1:fc:b0:e6:38:ca:80:
        5a:5d:89:d0:77:3a:5e:ec:c7:2a:e1:af:c4:ed:16:62:62:e3:
        3c:02:21:00:c3:d3:1f:08:47:e6:52:b2:7f:f5:8f:9d:4f:55:
        a0:05:7a:01:de:a0:0a:cd:19:e9:95:6d:93:59:7c:6a:ee:9a
-----BEGIN CERTIFICATE-----
MIIClDCCAjmgAwIBAgIQDroOBMc02hq3t0/6xNzw4TAKBggqhkjOPQQDAjBEMRgw
FgYDVQQKEw9HU00gQXNzb2NpYXRpb24xKDAmBgNVBAMTH0dTTSBBc3NvY2lhdGlv
biAtIFJTUDIgUm9vdCBDSTEwHhcNMjEwODI1MDAwMDAwWhcNMjQwODI0MjM1OTU5
WjB7MQswCQYDVQQGEwJHQjEWMBQGA1UECBMNQ291bnR5IEFudHJpbTEQMA4GA1UE
BxMHQmVsZmFzdDEYMBYGA1UEChMPS2lnZW4gKFVLKSBMdGQuMSgwJgYDVQQDEx9z
bWRwLXBsdXMtMC5ldS5jZC5yc3Aua2lnZW4uY29tMFkwEwYHKoZIzj0CAQYIKoZI
zj0DAQcDQgAElJtFc8jQijT2Zk6U0Rg/l0ROf46e2IVA8r6R8cHui/2JOCgDaqPB
ttsto9LxRo3BwvOasssTTJvrIH+14GngOaOB1TCB0jAXBgNVHSABAf8EDTALMAkG
B2eBEgECAQQwTQYDVR0fBEYwRDBCoECgPoY8aHR0cDovL2dzbWEtY3JsLnN5bWF1
dGguY29tL29mZmxpbmVjYS9nc21hLXJzcDItcm9vdC1jaTEuY3JsMA4GA1UdDwEB
/wQEAwIHgDAYBgNVHREEETAPiA0rBgEEAYO7EwECAQEBMB0GA1UdDgQWBBQY+Dci
BahaQJPKnNXW+C5FiuRixTAfBgNVHSMEGDAWgBSBNw9RJdCx1AjUw7Iy5tJeeVvr
+zAKBggqhkjOPQQDAgNJADBGAiEA50w7EiaYsfyw5jjKgFpdidB3Ol7sxyrhr8Tt
FmJi4zwCIQDD0x8IR+ZSsn/1j51PVaAFegHeoArNGemVbZNZfGrumg==
-----END CERTIFICATE-----
