Certificate:
    Data:
        Version: 3 (0x2)
        Serial Number:
            5f:57:32:7f:71:d9:e0:bd:a2:ba:78:9a:f1:fe:93:e3
        Signature Algorithm: ecdsa-with-SHA256
        Issuer: O=GSM Association, CN=GSM Association - RSP2 Root CI1
        Validity
            Not Before: Sep 26 00:00:00 2023 GMT
            Not After : Sep 25 23:59:59 2026 GMT
        Subject: C=FR, O=Oasis Smart Sim Europe SAS, OU=OSSE, CN=dp-plus-par7-01-auth
        Subject Public Key Info:
            Public Key Algorithm: id-ecPublicKey
                Public-Key: (256 bit)
                pub:
                    04:25:5c:5c:f4:7b:3e:af:c1:b5:37:17:b3:4c:fb:
                    e0:01:54:90:ab:0d:03:5f:8e:90:30:b8:aa:c3:2c:
                    2f:a1:e3:65:c7:ba:48:30:6a:1f:2d:61:b2:06:d4:
                    fa:af:eb:37:29:e0:6a:76:2c:d9:68:41:14:17:3e:
                    69:d5:a4:fe:93
                ASN1 OID: prime256v1
                NIST CURVE: P-256
        X509v3 extensions:
            X509v3 Subject Key Identifier: 
                BF:07:DE:CC:57:E6:1B:99:B0:CB:80:89:10:E0:F0:75:6D:B0:A5:99
            X509v3 Certificate Policies: critical
                Policy: 2.23.146.1.2.1.4
            X509v3 CRL Distribution Points: 
                Full Name:
                  URI:http://gsma-crl.symauth.com/offlineca/gsma-rsp2-root-ci1.crl
            X509v3 Key Usage: critical
                Digital Signature
            X509v3 Subject Alternative Name: 
                Registered ID:1.3.6.1.4.1.53460.7.5.1.1
            X509v3 Authority Key Identifier: 
                81:37:0F:51:25:D0:B1:D4:08:D4:C3:B2:32:E6:D2:5E:79:5B:EB:FB
    Signature Algorithm: ecdsa-with-SHA256
    Signature Value:
        30:44:02:20:51:df:fb:1f:33:c2:b6:77:1a:ea:ed:2f:32:4f:
        5b:86:58:c5:a3:67:b8:b7:ef:18:44:df:3f:b7:bd:4a:9d:2d:
        02:20:04:83:cf:b7:d0:63:14:41:8c:32:05:d4:d5:b3:55:b8:
        32:49:5b:d2:d2:02:53:24:fe:0e:bd:87:e5:51:e0:f3
-----BEGIN CERTIFICATE-----
MIICdjCCAh2gAwIBAgIQX1cyf3HZ4L2iunia8f6T4zAKBggqhkjOPQQDAjBEMRgw
FgYDVQQKEw9HU00gQXNzb2NpYXRpb24xKDAmBgNVBAMTH0dTTSBBc3NvY2lhdGlv
biAtIFJTUDIgUm9vdCBDSTEwHhcNMjMwOTI2MDAwMDAwWhcNMjYwOTI1MjM1OTU5
WjBgMQswCQYDVQQGEwJGUjEjMCEGA1UECgwaT2FzaXMgU21hcnQgU2ltIEV1cm9w
ZSBTQVMxDTALBgNVBAsMBE9TU0UxHTAbBgNVBAMMFGRwLXBsdXMtcGFyNy0wMS1h
dXRoMFkwEwYHKoZIzj0CAQYIKoZIzj0DAQcDQgAEJVxc9Hs+r8G1NxezTPvgAVSQ
qw0DX46QMLiqwywvoeNlx7pIMGofLWGyBtT6r+s3KeBqdizZaEEUFz5p1aT+k6OB
1DCB0TAdBgNVHQ4EFgQUvwfezFfmG5mwy4CJEODwdW2wpZkwFwYDVR0gAQH/BA0w
CzAJBgdngRIBAgEEME0GA1UdHwRGMEQwQqBAoD6GPGh0dHA6Ly9nc21hLWNybC5z
eW1hdXRoLmNvbS9vZmZsaW5lY2EvZ3NtYS1yc3AyLXJvb3QtY2kxLmNybDAOBgNV
HQ8BAf8EBAMCB4AwFwYDVR0RBBAwDogMKwYBBAGDoVQHBQEBMB8GA1UdIwQYMBaA
FIE3D1El0LHUCNTDsjLm0l55W+v7MAoGCCqGSM49BAMCA0cAMEQCIFHf+x8zwrZ3
GurtLzJPW4ZYxaNnuLfvGETfP7e9Sp0tAiAEg8+30GMUQYwyBdTVs1W4Mklb0tIC
UyT+Dr2H5VHg8w==
-----END CERTIFICATE-----
