Certificate:
    Data:
        Version: 3 (0x2)
        Serial Number:
            0e:63:10:3c:52:95:de:ff:78:22:70:5e:bd:d6:34:19
        Signature Algorithm: ecdsa-with-SHA256
        Issuer: C=US, O=Entrust, Inc., OU=See www.entrust.net/legal-terms, OU=(c) 2016 Entrust, Inc. - for authorized use only, CN=Entrust eSIM Certification Authority
        Validity
            Not Before: Jan 17 19:42:08 2024 GMT
            Not After : Jan 17 19:42:07 2026 GMT
        Subject: C=FR, ST=Île-de-France, L=Courbevoie, O=THALES, CN=GCP EW1 PROD SMDPP AUTH ENTRUST, emailAddress=DL.DES.SRE.GCP@thalesgroup.com
        Subject Public Key Info:
            Public Key Algorithm: id-ecPublicKey
                Public-Key: (256 bit)
                pub:
                    04:3a:0f:1b:03:58:6a:01:d1:35:31:69:b3:19:35:
                    1d:59:58:65:63:8f:fb:0f:9b:c6:2c:47:44:cc:af:
                    a0:b7:2d:25:62:9c:f7:d4:c2:41:25:dc:30:c6:9b:
                    28:1a:6a:e1:3e:46:2b:28:e9:bd:8f:bb:f3:a2:f1:
                    e4:89:69:11:ae
                ASN1 OID: prime256v1
                NIST CURVE: P-256
        X509v3 extensions:
            X509v3 Basic Constraints: critical
                CA:FALSE
            X509v3 Subject Key Identifier: 
                68:69:31:98:5A:21:24:84:8F:AD:67:84:BA:6A:80:F2:E8:7E:09:71
            X509v3 Authority Key Identifier: 
                16:70:4B:7F:35:1E:36:07:F1:8C:4B:70:00:5C:3A:00:3D:FD:41:4A
            X509v3 CRL Distribution Points: 
                Full Name:
                  URI:http://crl.entrust.net/entesimca.crl
            X509v3 Subject Alternative Name: 
                Registered ID:1.3.6.1.4.1.31746.1.220.100.101.2
            X509v3 Key Usage: critical
                Digital Signature
            X509v3 Certificate Policies: critical
                Policy: 2.23.146.1.2.1.4
    Signature Algorithm: ecdsa-with-SHA256
    Signature Value:
        30:46:02:21:00:b5:1c:09:5c:91:50:63:e3:4d:9f:94:2d:7a:
        b5:1d:6d:04:fe:db:81:ce:4f:b3:bb:c4:4c:c5:61:45:4b:36:
        23:02:21:00:d2:34:46:d5:d4:20:6c:dc:4c:55:63:6d:f4:8b:
        4e:f7:73:f0:51:71:32:96:fe:42:0a:b2:61:8f:1e:38:02:13
-----BEGIN CERTIFICATE-----
MIIDLDCCAtGgAwIBAgIQDmMQPFKV3v94InBevdY0GTAKBggqhkjOPQQDAjCBuTEL
MAkGA1UEBhMCVVMxFjAUBgNVBAoTDUVudHJ1c3QsIEluYy4xKDAmBgNVBAsTH1Nl
ZSB3d3cuZW50cnVzdC5uZXQvbGVnYWwtdGVybXMxOTA3BgNVBAsTMChjKSAyMDE2
IEVudHJ1c3QsIEluYy4gLSBmb3IgYXV0aG9yaXplZCB1c2Ugb25seTEtMCsGA1UE
AxMkRW50cnVzdCBlU0lNIENlcnRpZmljYXRpb24gQXV0aG9yaXR5MB4XDTI0MDEx
NzE5NDIwOFoXDTI2MDExNzE5NDIwN1owgaUxCzAJBgNVBAYTAkZSMRcwFQYDVQQI
DA7DjmxlLWRlLUZyYW5jZTETMBEGA1UEBxMKQ291cmJldm9pZTEPMA0GA1UEChMG
VEhBTEVTMSgwJgYDVQQDEx9HQ1AgRVcxIFBST0QgU01EUFAgQVVUSCBFTlRSVVNU
MS0wKwYJKoZIhvcNAQkBFh5ETC5ERVMuU1JFLkdDUEB0aGFsZXNncm91cC5jb20w
WTATBgcqhkjOPQIBBggqhkjOPQMBBwNCAAQ6DxsDWGoB0TUxabMZNR1ZWGVjj/sP
m8YsR0TMr6C3LSVinPfUwkEl3DDGmygaauE+Riso6b2Pu/Oi8eSJaRGuo4HMMIHJ
MAwGA1UdEwEB/wQCMAAwHQYDVR0OBBYEFGhpMZhaISSEj61nhLpqgPLofglxMB8G
A1UdIwQYMBaAFBZwS381HjYH8YxLcABcOgA9/UFKMDUGA1UdHwQuMCwwKqAooCaG
JGh0dHA6Ly9jcmwuZW50cnVzdC5uZXQvZW50ZXNpbWNhLmNybDAZBgNVHREEEjAQ
iA4rBgEEAYH4AgGBXGRlAjAOBgNVHQ8BAf8EBAMCB4AwFwYDVR0gAQH/BA0wCzAJ
BgdngRIBAgEEMAoGCCqGSM49BAMCA0kAMEYCIQC1HAlckVBj402flC16tR1tBP7b
gc5Ps7vETMVhRUs2IwIhANI0RtXUIGzcTFVjbfSLTvdz8FFxMpb+QgqyYY8eOAIT
-----END CERTIFICATE-----
