Certificate:
    Data:
        Version: 3 (0x2)
        Serial Number:
            0d:09:06:1b:ef:f2:b7:52:5c:dd:1f:3d:73:8c:df:02
        Signature Algorithm: ecdsa-with-SHA256
        Issuer:
            O = GSM Association
            CN = GSM Association - RSP2 Root CI1
        Validity
            Not Before: Sep 26 00:00:00 2024 GMT
            Not After : Sep 25 23:59:59 2027 GMT
        Subject:
            C = FR
            L = La Ciotat
            O = THALES SA
            OU = DIS
            CN = THALES SMDPP
        Subject Public Key Info:
            Public Key Algorithm: id-ecPublicKey
                Public-Key: (256 bit)
                pub:
                    04:55:72:4e:df:76:9a:2d:a9:0e:0b:a5:35:92:e6:
                    08:7e:73:8c:7e:05:19:f4:e3:54:da:2c:22:1d:1b:
                    c6:5e:54:5b:bf:c4:24:95:09:bf:37:6a:16:7c:16:
                    1f:80:e2:a6:28:9f:bc:cd:cd:76:e8:19:2e:e4:65:
                    e4:89:4c:db:ee
                ASN1 OID: prime256v1
                NIST CURVE: P-256
        X509v3 extensions:
            X509v3 Subject Alternative Name: 
                Registered ID:1.3.6.1.4.1.31746.1.220.100.101.2
            X509v3 Certificate Policies: critical
                Policy: 2.23.146.1.2.1.4
            X509v3 CRL Distribution Points: 
                Full Name:
                  URI:http://gsma-crl.symauth.com/offlineca/gsma-rsp2-root-ci1.crl
            X509v3 Key Usage: critical
                Digital Signature
            X509v3 Subject Key Identifier: 
                25:F7:09:B3:73:6C:0B:DA:32:D6:A9:4A:31:BD:E4:7C:B1:2A:25:AA
            X509v3 Authority Key Identifier: 
                81:37:0F:51:25:D0:B1:D4:08:D4:C3:B2:32:E6:D2:5E:79:5B:EB:FB
    Signature Algorithm: ecdsa-with-SHA256
    Signature Value:
        30:44:02:20:19:6d:26:cb:d7:2b:b1:59:f3:1a:6c:42:10:44:
        2d:52:a2:05:66:e6:d5:81:61:8b:cf:2c:6d:bb:89:5f:7b:5f:
        02:20:0c:96:7b:51:2c:e6:95:7c:e7:e4:d2:6a:e2:be:ee:b9:
        d2:a3:09:1d:eb:f3:4d:e3:e3:a8:72:52:db:b7:5e:5a
-----BEGIN CERTIFICATE-----
MIICcjCCAhmgAwIBAgIQDQkGG+/yt1Jc3R89c4zfAjAKBggqhkjOPQQDAjBEMRgw
FgYDVQQKEw9HU00gQXNzb2NpYXRpb24xKDAmBgNVBAMTH0dTTSBBc3NvY2lhdGlv
biAtIFJTUDIgUm9vdCBDSTEwHhcNMjQwOTI2MDAwMDAwWhcNMjcwOTI1MjM1OTU5
WjBaMQswCQYDVQQGEwJGUjESMBAGA1UEBwwJTGEgQ2lvdGF0MRIwEAYDVQQKDAlU
SEFMRVMgU0ExDDAKBgNVBAsMA0RJUzEVMBMGA1UEAwwMVEhBTEVTIFNNRFBQMFkw
EwYHKoZIzj0CAQYIKoZIzj0DAQcDQgAEVXJO33aaLakOC6U1kuYIfnOMfgUZ9ONU
2iwiHRvGXlRbv8QklQm/N2oWfBYfgOKmKJ+8zc126Bku5GXkiUzb7qOB1jCB0zAZ
BgNVHREEEjAQiA4rBgEEAYH4AgGBXGRlAjAXBgNVHSABAf8EDTALMAkGB2eBEgEC
AQQwTQYDVR0fBEYwRDBCoECgPoY8aHR0cDovL2dzbWEtY3JsLnN5bWF1dGguY29t
L29mZmxpbmVjYS9nc21hLXJzcDItcm9vdC1jaTEuY3JsMA4GA1UdDwEB/wQEAwIH
gDAdBgNVHQ4EFgQUJfcJs3NsC9oy1qlKMb3kfLEqJaowHwYDVR0jBBgwFoAUgTcP
USXQsdQI1MOyMubSXnlb6/swCgYIKoZIzj0EAwIDRwAwRAIgGW0my9crsVnzGmxC
EEQtUqIFZubVgWGLzyxtu4lfe18CIAyWe1Es5pV85+TSauK+7rnSowkd6/NN4+Oo
clLbt15a
-----END CERTIFICATE-----
