Certificate:
    Data:
        Version: 3 (0x2)
        Serial Number: 113420 (0x1bb0c)
        Signature Algorithm: ecdsa-with-SHA256
        Issuer:
            C = CN
            ST = BEIJING
            L = BEIJING
            OU = CTTL
            O = CAICT
            CN = Taier eSIM Root CA - NISTP256
        Validity
            Not Before: May  6 10:22:22 2024 GMT
            Not After : May  6 10:22:22 2025 GMT
        Subject:
            C = CN
            OU = Innovative Business Department
            O = Vsens
            CN = Unicom Vsens Communication Co. Ltd
        Subject Public Key Info:
            Public Key Algorithm: id-ecPublicKey
                Public-Key: (256 bit)
                pub:
                    04:92:d4:a8:27:1d:c5:20:75:4a:0e:92:05:4d:bd:
                    cb:e4:5b:b1:4d:52:8d:ba:32:cb:47:a8:41:06:15:
                    aa:b1:37:66:bb:cf:27:c7:0b:39:8c:0f:ea:9f:30:
                    4f:5b:ba:24:5a:fe:36:79:67:c7:9b:8d:bd:eb:b7:
                    6b:a4:40:a0:09
                ASN1 OID: prime256v1
                NIST CURVE: P-256
        X509v3 extensions:
            X509v3 Authority Key Identifier: 
                14:80:30:FC:24:6C:02:FF:22:21:06:12:5A:8D:6B:DA:99:0A:FB:E9
            X509v3 Subject Key Identifier: 
                91:68:A1:8F:F2:43:03:C1:CC:39:90:C7:A9:01:D7:EE:47:E8:3D:4C
            X509v3 Key Usage: critical
                Digital Signature
            X509v3 Certificate Policies: critical
                Policy: 2.23.146.1.2.1.4
            X509v3 Subject Alternative Name: 
                Registered ID:1.3.6.1.4.1.47814.2.4
            X509v3 CRL Distribution Points: 
                Full Name:
                  URI:http://crl.uni-ca.com.cn/download/n1.crl
                Full Name:
                  URI:http://crl.uni-ca.com.cn/download/n2.crl
    Signature Algorithm: ecdsa-with-SHA256
    Signature Value:
        30:45:02:20:39:3d:dc:ad:0f:00:a4:29:94:62:fc:32:39:b5:
        7f:a6:a1:60:3f:40:4b:52:d7:d4:d8:83:2d:d5:12:cf:fc:ab:
        02:21:00:d1:23:46:69:ae:b4:db:e3:7a:8f:ec:4e:f6:42:a0:
        5e:7e:0c:25:a7:ad:b0:da:60:29:32:63:9e:2f:f8:40:bb
-----BEGIN CERTIFICATE-----
MIICyzCCAnGgAwIBAgIDAbsMMAoGCCqGSM49BAMCMHgxCzAJBgNVBAYTAkNOMRAw
DgYDVQQIDAdCRUlKSU5HMRAwDgYDVQQHDAdCRUlKSU5HMQ0wCwYDVQQLDARDVFRM
MQ4wDAYDVQQKDAVDQUlDVDEmMCQGA1UEAwwdVGFpZXIgZVNJTSBSb290IENBIC0g
TklTVFAyNTYwHhcNMjQwNTA2MTAyMjIyWhcNMjUwNTA2MTAyMjIyWjBzMQswCQYD
VQQGEwJDTjEnMCUGA1UECwweSW5ub3ZhdGl2ZSBCdXNpbmVzcyBEZXBhcnRtZW50
MQ4wDAYDVQQKDAVWc2VuczErMCkGA1UEAwwiVW5pY29tIFZzZW5zIENvbW11bmlj
YXRpb24gQ28uIEx0ZDBZMBMGByqGSM49AgEGCCqGSM49AwEHA0IABJLUqCcdxSB1
Sg6SBU29y+RbsU1Sjboyy0eoQQYVqrE3ZrvPJ8cLOYwP6p8wT1u6JFr+Nnlnx5uN
veu3a6RAoAmjge4wgeswHwYDVR0jBBgwFoAUFIAw/CRsAv8iIQYSWo1r2pkK++kw
HQYDVR0OBBYEFJFooY/yQwPBzDmQx6kB1+5H6D1MMA4GA1UdDwEB/wQEAwIHgDAX
BgNVHSABAf8EDTALMAkGB2eBEgECAQQwFQYDVR0RBA4wDIgKKwYBBAGC9UYCBDBp
BgNVHR8EYjBgMC6gLKAqhihodHRwOi8vY3JsLnVuaS1jYS5jb20uY24vZG93bmxv
YWQvbjEuY3JsMC6gLKAqhihodHRwOi8vY3JsLnVuaS1jYS5jb20uY24vZG93bmxv
YWQvbjIuY3JsMAoGCCqGSM49BAMCA0gAMEUCIDk93K0PAKQplGL8Mjm1f6ahYD9A
S1LX1NiDLdUSz/yrAiEA0SNGaa602+N6j+xO9kKgXn4MJaetsNpgKTJjni/4QLs=
-----END CERTIFICATE-----
