Certificate:
    Data:
        Version: 3 (0x2)
        Serial Number: 116864 (0x1c880)
        Signature Algorithm: ecdsa-with-SHA256
        Issuer:
            C = CN
            ST = JILIN
            L = CHANGCHUN
            OU = CUCA
            O = CU
            CN = China Unicom eSIM Root CA
        Validity
            Not Before: Aug 16 09:16:08 2022 GMT
            Not After : Aug 15 09:16:08 2024 GMT
        Subject:
            C = CN
            OU = Innovative Business Department
            O = Vsens
            CN = Unicom Vsens Communication Co. Ltd
        Subject Public Key Info:
            Public Key Algorithm: id-ecPublicKey
                Public-Key: (256 bit)
                pub:
                    04:96:cd:b5:a4:dd:bc:7b:d0:4f:e7:aa:f7:07:92:
                    c4:99:8c:ab:01:91:53:f3:48:4f:a4:e6:0e:15:cf:
                    30:83:b9:cd:c2:19:1a:09:9a:e4:65:f8:25:ba:1c:
                    16:6f:6d:dd:dc:e6:5b:d7:26:fe:dd:0d:5e:07:8f:
                    0c:9b:84:33:0d
                ASN1 OID: prime256v1
                NIST CURVE: P-256
        X509v3 extensions:
            X509v3 Authority Key Identifier: 
                16:B5:D1:60:48:E3:EA:02:BD:4B:60:6E:5F:77:A4:BF:20:80:8D:83
            X509v3 Subject Key Identifier: 
                C7:55:BA:6A:C6:CB:08:8D:FD:22:86:B6:32:35:F6:8B:CD:66:7A:28
            X509v3 Key Usage: critical
                Digital Signature
            X509v3 Certificate Policies: critical
                Policy: 2.23.146.1.2.1.4
            X509v3 Subject Alternative Name: 
                Registered ID:1.3.6.1.4.1.47814.2.4
            X509v3 CRL Distribution Points: 
                Full Name:
                  URI:http://esimcrl.uni-ca.com.cn:6666/download/n1.crl
                Full Name:
                  URI:http://esimcrl.uni-ca.com.cn:6666/download/n2.crl
    Signature Algorithm: ecdsa-with-SHA256
    Signature Value:
        30:46:02:21:00:db:e5:8a:d4:7e:ed:a4:94:84:b7:0f:21:9b:
        0c:78:f7:18:b5:91:50:85:4d:2c:49:d6:98:12:8d:41:90:14:
        78:02:21:00:b9:c2:4b:73:52:d1:84:b8:63:06:3e:0c:28:35:
        35:3a:4c:78:6f:1f:82:d1:a1:c1:5b:9b:db:e0:2a:7a:58:de
-----BEGIN CERTIFICATE-----
MIIC2DCCAn2gAwIBAgIDAciAMAoGCCqGSM49BAMCMHExCzAJBgNVBAYTAkNOMQ4w
DAYDVQQIEwVKSUxJTjESMBAGA1UEBxMJQ0hBTkdDSFVOMQ0wCwYDVQQLEwRDVUNB
MQswCQYDVQQKEwJDVTEiMCAGA1UEAxMZQ2hpbmEgVW5pY29tIGVTSU0gUm9vdCBD
QTAeFw0yMjA4MTYwOTE2MDhaFw0yNDA4MTUwOTE2MDhaMHMxCzAJBgNVBAYTAkNO
MScwJQYDVQQLEx5Jbm5vdmF0aXZlIEJ1c2luZXNzIERlcGFydG1lbnQxDjAMBgNV
BAoTBVZzZW5zMSswKQYDVQQDEyJVbmljb20gVnNlbnMgQ29tbXVuaWNhdGlvbiBD
by4gTHRkMFkwEwYHKoZIzj0CAQYIKoZIzj0DAQcDQgAEls21pN28e9BP56r3B5LE
mYyrAZFT80hPpOYOFc8wg7nNwhkaCZrkZfgluhwWb23d3OZb1yb+3Q1eB48Mm4Qz
DaOCAQAwgf0wHwYDVR0jBBgwFoAUFrXRYEjj6gK9S2BuX3ekvyCAjYMwHQYDVR0O
BBYEFMdVumrGywiN/SKGtjI19ovNZnooMA4GA1UdDwEB/wQEAwIHgDAXBgNVHSAB
Af8EDTALMAkGB2eBEgECAQQwFQYDVR0RBA4wDIgKKwYBBAGC9UYCBDB7BgNVHR8E
dDByMDegNaAzhjFodHRwOi8vZXNpbWNybC51bmktY2EuY29tLmNuOjY2NjYvZG93
bmxvYWQvbjEuY3JsMDegNaAzhjFodHRwOi8vZXNpbWNybC51bmktY2EuY29tLmNu
OjY2NjYvZG93bmxvYWQvbjIuY3JsMAoGCCqGSM49BAMCA0kAMEYCIQDb5YrUfu2k
lIS3DyGbDHj3GLWRUIVNLEnWmBKNQZAUeAIhALnCS3NS0YS4YwY+DCg1NTpMeG8f
gtGhwVub2+Aqelje
-----END CERTIFICATE-----
