Certificate:
    Data:
        Version: 3 (0x2)
        Serial Number: 100205 (0x1876d)
        Signature Algorithm: ecdsa-with-SHA256
        Issuer:
            C = CN
            ST = JILIN
            L = CHANGCHUN
            OU = CUCA
            O = CU
            CN = China Unicom eSIM Root CA NISTP BZTEST
        Validity
            Not Before: Jun 16 01:37:28 2023 GMT
            Not After : Jun 15 01:37:28 2025 GMT
        Subject:
            C = CN
            OU = Innovative Business Department
            O = Vsens
            CN = Unicom Vsens Communication Co. Ltd
        Subject Public Key Info:
            Public Key Algorithm: id-ecPublicKey
                Public-Key: (256 bit)
                pub:
                    04:51:aa:5e:99:fa:76:e0:0b:29:e0:4c:b7:8e:7a:
                    01:9a:94:56:4e:b8:4a:0f:83:86:a6:17:04:e1:ad:
                    fb:30:90:1a:38:4c:0f:a5:ac:b3:88:a7:4f:84:b4:
                    91:ab:31:17:ff:df:ac:08:7a:da:98:3f:fd:6d:3d:
                    c7:42:7a:11:a4
                ASN1 OID: prime256v1
                NIST CURVE: P-256
        X509v3 extensions:
            X509v3 Authority Key Identifier: 
                7C:0E:54:70:14:3E:A8:99:8E:D9:DF:30:05:74:C9:2E:5A:9A:CB:1F
            X509v3 Subject Key Identifier: 
                64:EA:8B:33:92:8F:85:8C:4A:04:A1:B4:08:FF:DC:10:46:73:02:B8
            X509v3 Key Usage: critical
                Digital Signature
            X509v3 Certificate Policies: critical
                Policy: 2.23.146.1.2.1.4
            X509v3 Subject Alternative Name: 
                Registered ID:1.3.6.1.4.1.47814.2.4
            X509v3 CRL Distribution Points: 
                Full Name:
                  URI:http://crl.uni-ca.com.cn/download/n1.crl
                Full Name:
                  URI:http://crl.uni-ca.com.cn/download/n2.crl
    Signature Algorithm: ecdsa-with-SHA256
    Signature Value:
        30:45:02:21:00:81:2b:57:37:74:b3:eb:86:55:df:90:c0:f7:
        c0:8b:5a:37:de:8b:5a:58:69:2a:9f:a3:3a:e1:bf:f5:fc:fe:
        b3:02:20:53:4f:99:08:92:25:86:70:71:dc:8f:e2:79:69:9b:
        15:2a:dc:23:86:de:22:00:06:c9:13:75:84:ad:eb:f1:b2
-----BEGIN CERTIFICATE-----
MIIC0TCCAnegAwIBAgIDAYdtMAoGCCqGSM49BAMCMH4xCzAJBgNVBAYTAkNOMQ4w
DAYDVQQIDAVKSUxJTjESMBAGA1UEBwwJQ0hBTkdDSFVOMQ0wCwYDVQQLDARDVUNB
MQswCQYDVQQKDAJDVTEvMC0GA1UEAwwmQ2hpbmEgVW5pY29tIGVTSU0gUm9vdCBD
QSBOSVNUUCBCWlRFU1QwHhcNMjMwNjE2MDEzNzI4WhcNMjUwNjE1MDEzNzI4WjBz
MQswCQYDVQQGEwJDTjEnMCUGA1UECwweSW5ub3ZhdGl2ZSBCdXNpbmVzcyBEZXBh
cnRtZW50MQ4wDAYDVQQKDAVWc2VuczErMCkGA1UEAwwiVW5pY29tIFZzZW5zIENv
bW11bmljYXRpb24gQ28uIEx0ZDBZMBMGByqGSM49AgEGCCqGSM49AwEHA0IABFGq
Xpn6duALKeBMt456AZqUVk64Sg+DhqYXBOGt+zCQGjhMD6Wss4inT4S0kasxF//f
rAh62pg//W09x0J6EaSjge4wgeswHwYDVR0jBBgwFoAUfA5UcBQ+qJmO2d8wBXTJ
Llqayx8wHQYDVR0OBBYEFGTqizOSj4WMSgShtAj/3BBGcwK4MA4GA1UdDwEB/wQE
AwIHgDAXBgNVHSABAf8EDTALMAkGB2eBEgECAQQwFQYDVR0RBA4wDIgKKwYBBAGC
9UYCBDBpBgNVHR8EYjBgMC6gLKAqhihodHRwOi8vY3JsLnVuaS1jYS5jb20uY24v
ZG93bmxvYWQvbjEuY3JsMC6gLKAqhihodHRwOi8vY3JsLnVuaS1jYS5jb20uY24v
ZG93bmxvYWQvbjIuY3JsMAoGCCqGSM49BAMCA0gAMEUCIQCBK1c3dLPrhlXfkMD3
wItaN96LWlhpKp+jOuG/9fz+swIgU0+ZCJIlhnBx3I/ieWmbFSrcI4beIgAGyRN1
hK3r8bI=
-----END CERTIFICATE-----
