Certificate:
    Data:
        Version: 3 (0x2)
        Serial Number: 1555562 (0x17bc6a)
        Signature Algorithm: ecdsa-with-SHA256
        Issuer:
            C = CN
            O = CMCA
            CN = CMCA eSIM Root CA_NIST
        Validity
            Not Before: Jan 10 02:19:37 2020 GMT
            Not After : Jan 10 02:19:37 2023 GMT
        Subject:
            C = CN
            O = Vsens
            OU = Innovative Business Department
            CN = rsp.esim.com.cn
        Subject Public Key Info:
            Public Key Algorithm: id-ecPublicKey
                Public-Key: (256 bit)
                pub:
                    04:81:2f:3e:06:5e:10:24:40:df:a6:21:53:0d:13:
                    d2:7b:5c:b2:68:b0:74:15:c1:2c:31:10:64:7b:4d:
                    e9:23:1d:c3:b8:1a:32:30:da:d6:12:d1:72:c6:2e:
                    e8:c8:5d:a2:7c:9d:b2:9c:29:7d:e2:2a:65:59:80:
                    7a:3f:28:b6:1e
                ASN1 OID: prime256v1
                NIST CURVE: P-256
        X509v3 extensions:
            X509v3 Authority Key Identifier: 
                CD:F6:D1:C0:A7:B0:7F:98:A8:61:B6:E3:78:B8:2F:64:8D:99:66:3E
            X509v3 Subject Key Identifier: 
                65:7A:26:03:54:EB:33:8A:88:B3:DF:68:28:60:03:AC:62:E3:C1:15
            X509v3 Key Usage: critical
                Digital Signature
            X509v3 Certificate Policies: critical
                Policy: 2.23.146.1.2.1.4
            X509v3 Subject Alternative Name: 
                Registered ID:1.3.6.1.4.1.47814.101.8
            X509v3 CRL Distribution Points: 
                Full Name:
                  URI:http://221.176.65.55:8081/crldownload/nA.crl
                Full Name:
                  URI:http://221.176.65.55:8081/crldownload/nB.crl
    Signature Algorithm: ecdsa-with-SHA256
    Signature Value:
        30:46:02:21:00:c6:77:93:4a:87:4c:fb:58:ba:da:27:e7:69:
        f9:69:a6:ec:54:e7:6b:92:7d:fb:18:35:2f:3a:16:96:8a:d0:
        50:02:21:00:dd:e9:1b:6c:2e:b4:90:1e:88:04:9c:53:9e:89:
        f4:fb:5c:dd:00:38:0d:8a:9f:29:29:09:3c:60:3d:28:cb:bc
-----BEGIN CERTIFICATE-----
MIIChjCCAiugAwIBAgIDF7xqMAoGCCqGSM49BAMCMD0xCzAJBgNVBAYTAkNOMQ0w
CwYDVQQKDARDTUNBMR8wHQYDVQQDDBZDTUNBIGVTSU0gUm9vdCBDQV9OSVNUMB4X
DTIwMDExMDAyMTkzN1oXDTIzMDExMDAyMTkzN1owYDELMAkGA1UEBhMCQ04xDjAM
BgNVBAoMBVZzZW5zMScwJQYDVQQLDB5Jbm5vdmF0aXZlIEJ1c2luZXNzIERlcGFy
dG1lbnQxGDAWBgNVBAMMD3JzcC5lc2ltLmNvbS5jbjBZMBMGByqGSM49AgEGCCqG
SM49AwEHA0IABIEvPgZeECRA36YhUw0T0ntcsmiwdBXBLDEQZHtN6SMdw7gaMjDa
1hLRcsYu6MhdonydspwpfeIqZVmAej8oth6jgfYwgfMwHwYDVR0jBBgwFoAUzfbR
wKewf5ioYbbjeLgvZI2ZZj4wHQYDVR0OBBYEFGV6JgNU6zOKiLPfaChgA6xi48EV
MA4GA1UdDwEB/wQEAwIHgDAXBgNVHSABAf8EDTALMAkGB2eBEgECAQQwFQYDVR0R
BA4wDIgKKwYBBAGC9UZlCDBxBgNVHR8EajBoMDKgMKAuhixodHRwOi8vMjIxLjE3
Ni42NS41NTo4MDgxL2NybGRvd25sb2FkL25BLmNybDAyoDCgLoYsaHR0cDovLzIy
MS4xNzYuNjUuNTU6ODA4MS9jcmxkb3dubG9hZC9uQi5jcmwwCgYIKoZIzj0EAwID
SQAwRgIhAMZ3k0qHTPtYuton52n5aabsVOdrkn37GDUvOhaWitBQAiEA3ekbbC60
kB6IBJxTnon0+1zdADgNip8pKQk8YD0oy7w=
-----END CERTIFICATE-----
