Certificate:
    Data:
        Version: 3 (0x2)
        Serial Number:
            79:3d:71:2d:5e:35:00:c2:ff:5c:1e:53:3d:ed:a1:f2:a1:5f:15:2b
        Signature Algorithm: ecdsa-with-SHA256
        Issuer:
            C = CN
            O = NETCA Certificate Authority
            CN = CCS NETCA eSIM ECC RootCA
        Validity
            Not Before: Jan 30 16:00:00 2023 GMT
            Not After : Dec 30 16:00:00 2024 GMT
        Subject:
            C = CN
            O = Vsens
            OU = Innovative Business Department
            CN = Unicom Vsens Communication Co. Ltd
        Subject Public Key Info:
            Public Key Algorithm: id-ecPublicKey
                Public-Key: (256 bit)
                pub:
                    04:30:3a:80:46:51:07:c6:58:d5:57:f9:a2:ca:96:
                    a7:a8:03:96:ef:48:a1:0f:c4:ca:2d:d8:c0:19:6e:
                    63:91:2b:a6:e9:d1:98:12:dc:28:3d:ea:f7:1b:0b:
                    86:c6:79:0a:62:5f:07:66:68:be:35:43:b4:cc:ad:
                    c5:91:ab:d5:bc
                ASN1 OID: prime256v1
                NIST CURVE: P-256
        X509v3 extensions:
            X509v3 Authority Key Identifier: 
                D3:EF:83:FC:50:3F:9C:6E:C4:B7:F6:AE:05:5B:7F:13:73:D4:AB:1E
            X509v3 Subject Key Identifier: 
                F1:9B:B1:9F:82:54:0A:7C:E0:30:98:42:73:FD:4E:06:2A:25:DF:C2
            X509v3 Key Usage: critical
                Digital Signature
            X509v3 Certificate Policies: critical
                Policy: 2.23.146.1.2.1.4
            X509v3 Subject Alternative Name: 
                Registered ID:1.3.6.1.4.1.47814.2.4
            X509v3 Basic Constraints: critical
                CA:FALSE
            X509v3 CRL Distribution Points: 
                Full Name:
                  URI:http://crl.cnca.net/esim/ccs/a.crl
    Signature Algorithm: ecdsa-with-SHA256
    Signature Value:
        30:45:02:20:57:4c:ac:88:fb:0b:d0:20:78:52:5e:45:d8:2e:
        2a:bc:bd:01:27:92:d7:0d:15:8a:e3:da:a7:6c:e3:fa:23:60:
        02:21:00:e8:a0:be:14:16:3f:d0:24:fd:b7:9e:53:2d:77:30:
        60:e5:cf:76:df:67:b1:94:92:ac:9c:06:f0:e8:88:40:f6
-----BEGIN CERTIFICATE-----
MIICkzCCAjmgAwIBAgIUeT1xLV41AML/XB5TPe2h8qFfFSswCgYIKoZIzj0EAwIw
VzELMAkGA1UEBhMCQ04xJDAiBgNVBAoMG05FVENBIENlcnRpZmljYXRlIEF1dGhv
cml0eTEiMCAGA1UEAwwZQ0NTIE5FVENBIGVTSU0gRUNDIFJvb3RDQTAeFw0yMzAx
MzAxNjAwMDBaFw0yNDEyMzAxNjAwMDBaMHMxCzAJBgNVBAYTAkNOMQ4wDAYDVQQK
EwVWc2VuczEnMCUGA1UECxMeSW5ub3ZhdGl2ZSBCdXNpbmVzcyBEZXBhcnRtZW50
MSswKQYDVQQDEyJVbmljb20gVnNlbnMgQ29tbXVuaWNhdGlvbiBDby4gTHRkMFkw
EwYHKoZIzj0CAQYIKoZIzj0DAQcDQgAEMDqARlEHxljVV/miypanqAOW70ihD8TK
LdjAGW5jkSum6dGYEtwoPer3GwuGxnkKYl8HZmi+NUO0zK3FkavVvKOBxjCBwzAf
BgNVHSMEGDAWgBTT74P8UD+cbsS39q4FW38Tc9SrHjAdBgNVHQ4EFgQU8Zuxn4JU
CnzgMJhCc/1OBiol38IwDgYDVR0PAQH/BAQDAgeAMBcGA1UdIAEB/wQNMAswCQYH
Z4ESAQIBBDAVBgNVHREEDjAMiAorBgEEAYL1RgIEMAwGA1UdEwEB/wQCMAAwMwYD
VR0fBCwwKjAooCagJIYiaHR0cDovL2NybC5jbmNhLm5ldC9lc2ltL2Njcy9hLmNy
bDAKBggqhkjOPQQDAgNIADBFAiBXTKyI+wvQIHhSXkXYLiq8vQEnktcNFYrj2qds
4/ojYAIhAOigvhQWP9Ak/beeUy13MGDlz3bfZ7GUkqycBvDoiED2
-----END CERTIFICATE-----
