Certificate:
    Data:
        Version: 3 (0x2)
        Serial Number:
            1d:71:c1:1f:6c:78:6f:97:60:ee:b7:40:a7:38:c0:db
        Signature Algorithm: ecdsa-with-SHA256
        Issuer:
            C = US
            O = Entrust, Inc.
            OU = See www.entrust.net/legal-terms
            OU = (c) 2016 Entrust, Inc. - for authorized use only
            CN = Entrust eSIM Certification Authority
        Validity
            Not Before: Feb  4 22:53:31 2022 GMT
            Not After : Feb  4 22:53:31 2024 GMT
        Subject:
            C = TR
            L = Istanbul
            O = PROTAHUB ULUSLARARASI BILISIM VE ILETISIM TEK ARGE DAN.DES.A.Ş
            CN = watch smdpp auth
        Subject Public Key Info:
            Public Key Algorithm: id-ecPublicKey
                Public-Key: (256 bit)
                pub:
                    04:c1:56:ab:80:e0:fb:6b:8c:0c:84:ad:c7:b1:84:
                    22:ed:5c:89:53:0f:0d:7d:10:fb:8a:48:08:dc:29:
                    b9:b6:06:18:8e:3d:55:7a:85:62:bb:19:17:47:47:
                    15:e9:ec:ff:e2:f8:49:df:65:50:b5:c4:7d:1c:1f:
                    28:8b:dd:92:ea
                ASN1 OID: prime256v1
                NIST CURVE: P-256
        X509v3 extensions:
            X509v3 Basic Constraints: critical
                CA:FALSE
            X509v3 Subject Key Identifier: 
                65:45:C6:BE:53:BC:B4:4A:A1:DF:24:42:DE:5F:52:4D:2D:49:26:B7
            X509v3 Authority Key Identifier: 
                16:70:4B:7F:35:1E:36:07:F1:8C:4B:70:00:5C:3A:00:3D:FD:41:4A
            X509v3 CRL Distribution Points: 
                Full Name:
                  URI:http://crl.entrust.net/entesimca.crl
            X509v3 Subject Alternative Name: 
                Registered ID:1.3.6.1.4.1.55201.1.3
            X509v3 Key Usage: critical
                Digital Signature
            X509v3 Certificate Policies: critical
                Policy: 2.23.146.1.2.1.4
    Signature Algorithm: ecdsa-with-SHA256
    Signature Value:
        30:45:02:20:3f:5d:fe:3a:db:a2:f6:cc:22:b5:6e:2e:26:5f:
        ae:47:29:8b:6c:60:21:7e:41:b3:5a:d8:56:c8:0e:c8:25:a1:
        02:21:00:f3:80:b8:57:1a:76:f3:89:a7:95:50:6e:b0:8c:53:
        d0:2b:a7:92:48:b2:bb:7c:dc:62:5e:b5:10:5d:34:0f:7c
-----BEGIN CERTIFICATE-----
MIIDBzCCAq2gAwIBAgIQHXHBH2x4b5dg7rdApzjA2zAKBggqhkjOPQQDAjCBuTEL
MAkGA1UEBhMCVVMxFjAUBgNVBAoTDUVudHJ1c3QsIEluYy4xKDAmBgNVBAsTH1Nl
ZSB3d3cuZW50cnVzdC5uZXQvbGVnYWwtdGVybXMxOTA3BgNVBAsTMChjKSAyMDE2
IEVudHJ1c3QsIEluYy4gLSBmb3IgYXV0aG9yaXplZCB1c2Ugb25seTEtMCsGA1UE
AxMkRW50cnVzdCBlU0lNIENlcnRpZmljYXRpb24gQXV0aG9yaXR5MB4XDTIyMDIw
NDIyNTMzMVoXDTI0MDIwNDIyNTMzMVowgYUxCzAJBgNVBAYTAlRSMREwDwYDVQQH
EwhJc3RhbmJ1bDFIMEYGA1UECgw/UFJPVEFIVUIgVUxVU0xBUkFSQVNJIEJJTElT
SU0gVkUgSUxFVElTSU0gVEVLIEFSR0UgREFOLkRFUy5BLsWeMRkwFwYDVQQDExB3
YXRjaCBzbWRwcCBhdXRoMFkwEwYHKoZIzj0CAQYIKoZIzj0DAQcDQgAEwVargOD7
a4wMhK3HsYQi7VyJUw8NfRD7ikgI3Cm5tgYYjj1VeoViuxkXR0cV6ez/4vhJ32VQ
tcR9HB8oi92S6qOByDCBxTAMBgNVHRMBAf8EAjAAMB0GA1UdDgQWBBRlRca+U7y0
SqHfJELeX1JNLUkmtzAfBgNVHSMEGDAWgBQWcEt/NR42B/GMS3AAXDoAPf1BSjA1
BgNVHR8ELjAsMCqgKKAmhiRodHRwOi8vY3JsLmVudHJ1c3QubmV0L2VudGVzaW1j
YS5jcmwwFQYDVR0RBA4wDIgKKwYBBAGDryEBAzAOBgNVHQ8BAf8EBAMCB4AwFwYD
VR0gAQH/BA0wCzAJBgdngRIBAgEEMAoGCCqGSM49BAMCA0gAMEUCID9d/jrbovbM
IrVuLiZfrkcpi2xgIX5Bs1rYVsgOyCWhAiEA84C4Vxp284mnlVBusIxT0Cunkkiy
u3zcYl61EF00D3w=
-----END CERTIFICATE-----
