Certificate:
    Data:
        Version: 3 (0x2)
        Serial Number:
            6c:ba:28:bf:77:a1:30:5d:12:72:a5:e2:43:97:c2:ce
        Signature Algorithm: ecdsa-with-SHA256
        Issuer:
            O = GSM Association
            CN = GSM Association - RSP2 Root CI1
        Validity
            Not Before: Feb 22 00:00:00 2023 GMT
            Not After : Feb 21 23:59:59 2026 GMT
        Subject:
            C = TR
            ST = Istanbul
            L = Istanbul
            O = Protahub
            CN = smdpp auth
        Subject Public Key Info:
            Public Key Algorithm: id-ecPublicKey
                Public-Key: (256 bit)
                pub:
                    04:94:85:24:fa:4e:c8:25:a1:01:2d:e3:9c:37:d5:
                    88:6d:64:f0:58:b0:b8:14:fe:fc:85:10:88:97:4e:
                    46:42:15:21:51:44:ed:01:c9:80:8e:3e:6c:f1:e3:
                    76:a1:c6:b6:c9:5d:99:30:2c:04:c5:e5:b7:95:0d:
                    39:0c:c3:01:8d
                ASN1 OID: prime256v1
                NIST CURVE: P-256
        X509v3 extensions:
            X509v3 Subject Key Identifier: 
                97:4C:F4:8B:A1:45:9A:0A:8A:16:E8:F7:31:AF:48:16:8C:21:69:E8
            X509v3 Certificate Policies: critical
                Policy: 2.23.146.1.2.1.4
            X509v3 CRL Distribution Points: 
                Full Name:
                  URI:http://gsma-crl.symauth.com/offlineca/gsma-rsp2-root-ci1.crl
            X509v3 Key Usage: critical
                Digital Signature
            X509v3 Subject Alternative Name: 
                Registered ID:1.3.6.1.4.1.55201.1.3
            X509v3 Authority Key Identifier: 
                81:37:0F:51:25:D0:B1:D4:08:D4:C3:B2:32:E6:D2:5E:79:5B:EB:FB
    Signature Algorithm: ecdsa-with-SHA256
    Signature Value:
        30:44:02:20:55:bd:68:ac:5d:58:37:97:2e:1e:4d:9d:31:4d:
        9a:fe:78:a3:d2:25:71:cc:fa:3d:f6:a2:7f:e2:7a:c8:19:03:
        02:20:25:5d:93:1e:53:b7:d6:11:1a:10:39:3f:94:47:32:0f:
        d0:21:d9:cd:c1:e6:f9:41:c4:4f:05:7f:c8:ac:c2:6f
-----BEGIN CERTIFICATE-----
MIICbzCCAhagAwIBAgIQbLoov3ehMF0ScqXiQ5fCzjAKBggqhkjOPQQDAjBEMRgw
FgYDVQQKEw9HU00gQXNzb2NpYXRpb24xKDAmBgNVBAMTH0dTTSBBc3NvY2lhdGlv
biAtIFJTUDIgUm9vdCBDSTEwHhcNMjMwMjIyMDAwMDAwWhcNMjYwMjIxMjM1OTU5
WjBbMQswCQYDVQQGEwJUUjERMA8GA1UECBMISXN0YW5idWwxETAPBgNVBAcTCElz
dGFuYnVsMREwDwYDVQQKEwhQcm90YWh1YjETMBEGA1UEAxMKc21kcHAgYXV0aDBZ
MBMGByqGSM49AgEGCCqGSM49AwEHA0IABJSFJPpOyCWhAS3jnDfViG1k8FiwuBT+
/IUQiJdORkIVIVFE7QHJgI4+bPHjdqHGtsldmTAsBMXlt5UNOQzDAY2jgdIwgc8w
HQYDVR0OBBYEFJdM9IuhRZoKihbo9zGvSBaMIWnoMBcGA1UdIAEB/wQNMAswCQYH
Z4ESAQIBBDBNBgNVHR8ERjBEMEKgQKA+hjxodHRwOi8vZ3NtYS1jcmwuc3ltYXV0
aC5jb20vb2ZmbGluZWNhL2dzbWEtcnNwMi1yb290LWNpMS5jcmwwDgYDVR0PAQH/
BAQDAgeAMBUGA1UdEQQOMAyICisGAQQBg68hAQMwHwYDVR0jBBgwFoAUgTcPUSXQ
sdQI1MOyMubSXnlb6/swCgYIKoZIzj0EAwIDRwAwRAIgVb1orF1YN5cuHk2dMU2a
/nij0iVxzPo99qJ/4nrIGQMCICVdkx5Tt9YRGhA5P5RHMg/QIdnNweb5QcRPBX/I
rMJv
-----END CERTIFICATE-----
