Certificate:
    Data:
        Version: 3 (0x2)
        Serial Number:
            6c:75:09:6e:17:94:8d:74:49:84:61:9d:a8:f8:fb:38
        Signature Algorithm: ecdsa-with-SHA256
        Issuer: O=Symantec Corporation, CN=Symantec Corporation RSP Test Root CA - For Test Purposes Only
        Validity
            Not Before: May 11 00:00:00 2021 GMT
            Not After : May 10 23:59:59 2024 GMT
        Subject: CN=IDEMIA Test SMDP v2, O=IDEMIA
        Subject Public Key Info:
            Public Key Algorithm: id-ecPublicKey
                Public-Key: (256 bit)
                pub:
                    04:d2:fd:4e:6d:6d:2a:c5:9f:fc:2c:11:7c:8a:5c:
                    5b:ad:06:c0:db:c8:d8:be:db:2f:7f:ba:7f:1b:49:
                    30:46:e3:ef:52:1e:df:84:80:ba:a0:66:3a:3d:be:
                    c1:14:fa:ff:a8:7b:9d:7e:11:eb:41:dc:05:9f:01:
                    40:dc:99:13:22
                ASN1 OID: prime256v1
                NIST CURVE: P-256
        X509v3 extensions:
            X509v3 Key Usage: critical
                Digital Signature
            X509v3 Subject Key Identifier: 
                3E:BA:74:D3:53:5C:1A:F4:9A:32:83:07:03:72:93:83:D1:C8:55:15
            X509v3 Subject Alternative Name: 
                Registered ID:1.3.6.1.4.1.30703.836685.503.101.101
            X509v3 Certificate Policies: critical
                Policy: 2.23.146.1.2.1.4
            X509v3 CRL Distribution Points: 
                Full Name:
                  URI:http://pki-crl.symauth.com/ca_a3dc2e3fea7708a11c889386d9d3a76f/LatestCRL.crl
            X509v3 Authority Key Identifier: 
                66:5A:14:33:D6:7C:1A:2C:5D:B8:B5:2C:96:7F:10:A0:57:BA:5C:B2
    Signature Algorithm: ecdsa-with-SHA256
    Signature Value:
        30:44:02:20:75:04:c0:06:14:d7:b7:bd:5f:f8:77:53:41:7c:
        aa:6d:4b:72:9e:ac:19:f4:43:d3:95:bb:8a:eb:79:7f:b1:ef:
        02:20:29:35:c0:b2:72:e9:c8:b9:b9:bc:ac:7f:8b:4f:85:59:
        19:eb:77:e5:72:a0:06:bb:82:d6:67:7f:bd:12:d1:46
-----BEGIN CERTIFICATE-----
MIICfDCCAiOgAwIBAgIQbHUJbheUjXRJhGGdqPj7ODAKBggqhkjOPQQDAjBoMR0w
GwYDVQQKExRTeW1hbnRlYyBDb3Jwb3JhdGlvbjFHMEUGA1UEAxM+U3ltYW50ZWMg
Q29ycG9yYXRpb24gUlNQIFRlc3QgUm9vdCBDQSAtIEZvciBUZXN0IFB1cnBvc2Vz
IE9ubHkwHhcNMjEwNTExMDAwMDAwWhcNMjQwNTEwMjM1OTU5WjAvMRwwGgYDVQQD
DBNJREVNSUEgVGVzdCBTTURQIHYyMQ8wDQYDVQQKDAZJREVNSUEwWTATBgcqhkjO
PQIBBggqhkjOPQMBBwNCAATS/U5tbSrFn/wsEXyKXFutBsDbyNi+2y9/un8bSTBG
4+9SHt+EgLqgZjo9vsEU+v+oe51+EetB3AWfAUDcmRMio4HnMIHkMA4GA1UdDwEB
/wQEAwIHgDAdBgNVHQ4EFgQUPrp001NcGvSaMoMHA3KTg9HIVRUwGgYDVR0RBBMw
EYgPKwYBBAGB72+ziE2Dd2VlMBcGA1UdIAEB/wQNMAswCQYHZ4ESAQIBBDBdBgNV
HR8EVjBUMFKgUKBOhkxodHRwOi8vcGtpLWNybC5zeW1hdXRoLmNvbS9jYV9hM2Rj
MmUzZmVhNzcwOGExMWM4ODkzODZkOWQzYTc2Zi9MYXRlc3RDUkwuY3JsMB8GA1Ud
IwQYMBaAFGZaFDPWfBosXbi1LJZ/EKBXulyyMAoGCCqGSM49BAMCA0cAMEQCIHUE
wAYU17e9X/h3U0F8qm1Lcp6sGfRD05W7iut5f7HvAiApNcCycunIubm8rH+LT4VZ
Get35XKgBruC1md/vRLRRg==
-----END CERTIFICATE-----
