Certificate:
    Data:
        Version: 3 (0x2)
        Serial Number:
            76:b8:36:59:67:29:5e:63:f6:0c:b0:b4:56:b8:57:f0
        Signature Algorithm: ecdsa-with-SHA256
        Issuer: O=GSM Association, CN=GSM Association - RSP2 Root CI1
        Validity
            Not Before: Oct 18 00:00:00 2023 GMT
            Not After : Oct 17 23:59:59 2026 GMT
        Subject: C=AE, O=Workz Media FZ LLC, OU=IoT Mobile Solutions, CN=Workz SM-DP+
        Subject Public Key Info:
            Public Key Algorithm: id-ecPublicKey
                Public-Key: (256 bit)
                pub:
                    04:aa:dc:8e:6b:d8:43:d6:57:0e:7f:f1:14:7a:26:
                    12:4e:58:db:01:db:96:36:45:3c:ff:28:17:c9:e3:
                    93:11:6d:4a:f1:bf:e9:cd:9c:e0:fa:ef:60:57:97:
                    4d:be:26:f3:d2:9d:ce:ec:42:ea:e7:91:6b:e2:12:
                    4d:c6:3a:a8:4c
                ASN1 OID: prime256v1
                NIST CURVE: P-256
        X509v3 extensions:
            X509v3 Certificate Policies: critical
                Policy: 2.23.146.1.2.1.4
            X509v3 CRL Distribution Points: 
                Full Name:
                  URI:http://gsma-crl.symauth.com/offlineca/gsma-rsp2-root-ci1.crl
            X509v3 Key Usage: critical
                Digital Signature
            X509v3 Subject Alternative Name: 
                Registered ID:1.3.6.1.4.1.52775.1.1.1.1.21
            X509v3 Subject Key Identifier: 
                5D:7F:95:23:0A:B1:AF:56:5D:AB:68:55:C9:CE:48:49:42:77:BC:1F
            X509v3 Authority Key Identifier: 
                81:37:0F:51:25:D0:B1:D4:08:D4:C3:B2:32:E6:D2:5E:79:5B:EB:FB
    Signature Algorithm: ecdsa-with-SHA256
    Signature Value:
        30:45:02:21:00:cc:ca:18:59:06:15:41:d7:38:19:27:2d:a9:
        ee:c1:97:11:96:eb:7d:88:dc:5d:18:42:b7:11:8e:6c:5d:fc:
        f0:02:20:56:4e:01:3e:74:84:a1:5d:ca:ec:d6:20:e8:37:26:
        ac:ad:03:d7:09:8b:65:46:27:cb:51:7a:83:e2:ad:28:3a
-----BEGIN CERTIFICATE-----
MIICeDCCAh6gAwIBAgIQdrg2WWcpXmP2DLC0VrhX8DAKBggqhkjOPQQDAjBEMRgw
FgYDVQQKEw9HU00gQXNzb2NpYXRpb24xKDAmBgNVBAMTH0dTTSBBc3NvY2lhdGlv
biAtIFJTUDIgUm9vdCBDSTEwHhcNMjMxMDE4MDAwMDAwWhcNMjYxMDE3MjM1OTU5
WjBgMQswCQYDVQQGEwJBRTEbMBkGA1UEChMSV29ya3ogTWVkaWEgRlogTExDMR0w
GwYDVQQLExRJb1QgTW9iaWxlIFNvbHV0aW9uczEVMBMGA1UEAxMMV29ya3ogU00t
RFArMFkwEwYHKoZIzj0CAQYIKoZIzj0DAQcDQgAEqtyOa9hD1lcOf/EUeiYSTljb
AduWNkU8/ygXyeOTEW1K8b/pzZzg+u9gV5dNvibz0p3O7ELq55Fr4hJNxjqoTKOB
1TCB0jAXBgNVHSABAf8EDTALMAkGB2eBEgECAQQwTQYDVR0fBEYwRDBCoECgPoY8
aHR0cDovL2dzbWEtY3JsLnN5bWF1dGguY29tL29mZmxpbmVjYS9nc21hLXJzcDIt
cm9vdC1jaTEuY3JsMA4GA1UdDwEB/wQEAwIHgDAYBgNVHREEETAPiA0rBgEEAYOc
JwEBAQEVMB0GA1UdDgQWBBRdf5UjCrGvVl2raFXJzkhJQne8HzAfBgNVHSMEGDAW
gBSBNw9RJdCx1AjUw7Iy5tJeeVvr+zAKBggqhkjOPQQDAgNIADBFAiEAzMoYWQYV
Qdc4GSctqe7BlxGW632I3F0YQrcRjmxd/PACIFZOAT50hKFdyuzWIOg3JqytA9cJ
i2VGJ8tReoPirSg6
-----END CERTIFICATE-----
