Certificate:
    Data:
        Version: 3 (0x2)
        Serial Number:
            11:39:42:66:9a:79:6e:32:7f:c5:eb:f2:59:46:5f:f9
        Signature Algorithm: ecdsa-with-SHA256
        Issuer:
            O = GSM Association
            CN = GSM Association - RSP2 Root CI1
        Validity
            Not Before: Nov 28 00:00:00 2023 GMT
            Not After : Nov 27 23:59:59 2026 GMT
        Subject:
            O = Simartis Telecom SRL
            CN = VSM DPAUTH
        Subject Public Key Info:
            Public Key Algorithm: id-ecPublicKey
                Public-Key: (256 bit)
                pub:
                    04:ea:8c:6c:e8:be:5c:f6:19:8f:55:8b:70:33:26:
                    7e:e9:1e:96:ae:f2:3c:29:dc:e5:23:33:30:1a:bc:
                    e9:f5:40:ff:5b:0b:1f:f2:19:0b:ca:4d:5b:9b:ba:
                    c3:ad:28:aa:e5:9b:1f:7e:9e:56:9c:aa:f4:8a:48:
                    65:81:ac:3f:b0
                ASN1 OID: prime256v1
                NIST CURVE: P-256
        X509v3 extensions:
            X509v3 Subject Key Identifier: 
                09:DC:02:BD:71:7D:7E:F8:AC:77:95:39:57:C8:7C:2E:AE:EB:03:C8
            X509v3 Certificate Policies: critical
                Policy: 2.23.146.1.2.1.4
            X509v3 CRL Distribution Points: 
                Full Name:
                  URI:http://gsma-crl.symauth.com/offlineca/gsma-rsp2-root-ci1.crl
            X509v3 Key Usage: critical
                Digital Signature
            X509v3 Authority Key Identifier: 
                81:37:0F:51:25:D0:B1:D4:08:D4:C3:B2:32:E6:D2:5E:79:5B:EB:FB
            X509v3 Subject Alternative Name: 
                Registered ID:1.3.6.1.4.1.57857.1.1
    Signature Algorithm: ecdsa-with-SHA256
    Signature Value:
        30:44:02:20:72:ab:a1:43:5b:d3:b8:25:90:68:b5:e8:0a:25:
        25:38:b8:54:83:6e:b6:d0:ac:10:06:18:6a:31:7b:39:59:bd:
        02:20:2d:55:22:f4:28:a8:4f:1e:0c:73:7d:9f:da:c7:e9:55:
        3c:3a:53:5d:a8:6e:58:7d:de:a8:19:53:41:2d:e6:12
-----BEGIN CERTIFICATE-----
MIICSDCCAe+gAwIBAgIQETlCZpp5bjJ/xevyWUZf+TAKBggqhkjOPQQDAjBEMRgw
FgYDVQQKEw9HU00gQXNzb2NpYXRpb24xKDAmBgNVBAMTH0dTTSBBc3NvY2lhdGlv
biAtIFJTUDIgUm9vdCBDSTEwHhcNMjMxMTI4MDAwMDAwWhcNMjYxMTI3MjM1OTU5
WjA0MR0wGwYDVQQKExRTaW1hcnRpcyBUZWxlY29tIFNSTDETMBEGA1UEAxMKVlNN
IERQQVVUSDBZMBMGByqGSM49AgEGCCqGSM49AwEHA0IABOqMbOi+XPYZj1WLcDMm
fukelq7yPCnc5SMzMBq86fVA/1sLH/IZC8pNW5u6w60oquWbH36eVpyq9IpIZYGs
P7CjgdIwgc8wHQYDVR0OBBYEFAncAr1xfX74rHeVOVfIfC6u6wPIMBcGA1UdIAEB
/wQNMAswCQYHZ4ESAQIBBDBNBgNVHR8ERjBEMEKgQKA+hjxodHRwOi8vZ3NtYS1j
cmwuc3ltYXV0aC5jb20vb2ZmbGluZWNhL2dzbWEtcnNwMi1yb290LWNpMS5jcmww
DgYDVR0PAQH/BAQDAgeAMB8GA1UdIwQYMBaAFIE3D1El0LHUCNTDsjLm0l55W+v7
MBUGA1UdEQQOMAyICisGAQQBg8QBAQEwCgYIKoZIzj0EAwIDRwAwRAIgcquhQ1vT
uCWQaLXoCiUlOLhUg2620KwQBhhqMXs5Wb0CIC1VIvQoqE8eDHN9n9rH6VU8OlNd
qG5Yfd6oGVNBLeYS
-----END CERTIFICATE-----
