Certificate:
    Data:
        Version: 3 (0x2)
        Serial Number:
            02:66:a2:9b:36:08:a7:d6:00:00:00:00:58:2d:10:91
        Signature Algorithm: ecdsa-with-SHA256
        Issuer: C=US, O=Entrust, Inc., OU=See www.entrust.net/legal-terms, OU=(c) 2016 Entrust, Inc. - for authorized use only, CN=Entrust eSIM Certification Authority
        Validity
            Not Before: Dec 13 19:56:03 2019 GMT
            Not After : Dec 13 20:26:01 2022 GMT
        Subject: C=DE, ST=Bayern, L=Munich, O=Giesecke & Devrient GmbH, CN=cust-003-aironv4.ca1.cust.gi-de.com, emailAddress=hemant.borse@gi-de.com
        Subject Public Key Info:
            Public Key Algorithm: id-ecPublicKey
                Public-Key: (256 bit)
                pub:
                    04:34:ca:8e:9b:c7:63:aa:fa:56:48:4d:02:b3:b0:
                    ca:60:d2:c9:d3:de:62:5a:99:a2:1a:3e:89:a7:7c:
                    76:5c:3d:1e:88:34:77:76:71:43:d0:1d:db:6a:40:
                    80:fd:7d:6f:ea:a4:53:19:b3:bf:86:4a:3e:91:82:
                    e2:cb:67:68:20
                ASN1 OID: prime256v1
                NIST CURVE: P-256
        X509v3 extensions:
            X509v3 Key Usage: critical
                Digital Signature
            X509v3 Certificate Policies: critical
                Policy: 2.23.146.1.2.1.4
            X509v3 CRL Distribution Points: 
                Full Name:
                  URI:http://crl.entrust.net/entesimca.crl
            X509v3 Subject Alternative Name: 
                Registered ID:1.3.6.1.4.1.11791.104.4.33.1
            X509v3 Authority Key Identifier: 
                16:70:4B:7F:35:1E:36:07:F1:8C:4B:70:00:5C:3A:00:3D:FD:41:4A
            X509v3 Subject Key Identifier: 
                B8:AB:17:21:AC:AF:E8:A5:45:AE:47:C0:0C:4F:2F:E8:B1:97:6E:ED
    Signature Algorithm: ecdsa-with-SHA256
    Signature Value:
        30:44:02:20:17:a9:4c:f7:65:53:4b:29:d1:cc:6f:f3:58:a4:
        f5:1d:34:e8:73:3c:68:e5:3b:2c:44:0b:02:18:fb:db:63:b0:
        02:20:22:93:14:18:c2:46:4a:cd:65:e6:3c:ef:c8:f0:0d:c3:
        6b:50:35:10:c2:70:d8:0f:d1:5c:4a:3b:f4:eb:39:01
-----BEGIN CERTIFICATE-----
MIIDGzCCAsKgAwIBAgIQAmaimzYIp9YAAAAAWC0QkTAKBggqhkjOPQQDAjCBuTEL
MAkGA1UEBhMCVVMxFjAUBgNVBAoTDUVudHJ1c3QsIEluYy4xKDAmBgNVBAsTH1Nl
ZSB3d3cuZW50cnVzdC5uZXQvbGVnYWwtdGVybXMxOTA3BgNVBAsTMChjKSAyMDE2
IEVudHJ1c3QsIEluYy4gLSBmb3IgYXV0aG9yaXplZCB1c2Ugb25seTEtMCsGA1UE
AxMkRW50cnVzdCBlU0lNIENlcnRpZmljYXRpb24gQXV0aG9yaXR5MB4XDTE5MTIx
MzE5NTYwM1oXDTIyMTIxMzIwMjYwMVowgacxCzAJBgNVBAYTAkRFMQ8wDQYDVQQI
EwZCYXllcm4xDzANBgNVBAcTBk11bmljaDEhMB8GA1UECgwYR2llc2Vja2UgJiBE
ZXZyaWVudCBHbWJIMSwwKgYDVQQDEyNjdXN0LTAwMy1haXJvbnY0LmNhMS5jdXN0
LmdpLWRlLmNvbTElMCMGCSqGSIb3DQEJARYWaGVtYW50LmJvcnNlQGdpLWRlLmNv
bTBZMBMGByqGSM49AgEGCCqGSM49AwEHA0IABDTKjpvHY6r6VkhNArOwymDSydPe
YlqZoho+iad8dlw9Hog0d3ZxQ9Ad22pAgP19b+qkUxmzv4ZKPpGC4stnaCCjgbsw
gbgwDgYDVR0PAQH/BAQDAgeAMBcGA1UdIAEB/wQNMAswCQYHZ4ESAQIBBDA1BgNV
HR8ELjAsMCqgKKAmhiRodHRwOi8vY3JsLmVudHJ1c3QubmV0L2VudGVzaW1jYS5j
cmwwFgYDVR0RBA8wDYgLKwYBBAHcD2gEIQEwHwYDVR0jBBgwFoAUFnBLfzUeNgfx
jEtwAFw6AD39QUowHQYDVR0OBBYEFLirFyGsr+ilRa5HwAxPL+ixl27tMAoGCCqG
SM49BAMCA0cAMEQCIBepTPdlU0sp0cxv81ik9R006HM8aOU7LEQLAhj722OwAiAi
kxQYwkZKzWXmPO/I8A3Da1A1EMJw2A/RXEo79Os5AQ==
-----END CERTIFICATE-----
