Certificate:
    Data:
        Version: 3 (0x2)
        Serial Number:
            39:79:11:6e:02:10:e4:bf:ef:3c:60:61:31:1c:4e:cb
        Signature Algorithm: ecdsa-with-SHA256
        Issuer:
            O = GSM Association
            CN = GSM Association - RSP2 Root CI1
        Validity
            Not Before: Aug 31 00:00:00 2023 GMT
            Not After : Aug 30 23:59:59 2026 GMT
        Subject:
            C = US
            ST = Virginia
            L = McLean
            O = RiPSIM Technologies Inc
            OU = IT
            CN = smdpplus.ripsim.com
        Subject Public Key Info:
            Public Key Algorithm: id-ecPublicKey
                Public-Key: (256 bit)
                pub:
                    04:83:f4:c2:3d:e8:f7:1e:e8:02:2d:bb:8d:e6:05:
                    b3:d0:83:78:60:e2:18:df:a0:31:16:1d:ca:66:6e:
                    9d:39:83:ec:34:fd:d9:0c:76:35:33:ae:67:12:2c:
                    01:e4:fb:50:22:51:9e:4d:c9:80:cc:0f:be:73:eb:
                    cf:82:be:43:79
                ASN1 OID: prime256v1
                NIST CURVE: P-256
        X509v3 extensions:
            X509v3 Certificate Policies: critical
                Policy: 2.23.146.1.2.1.4
            X509v3 CRL Distribution Points: 
                Full Name:
                  URI:http://gsma-crl.symauth.com/offlineca/gsma-rsp2-root-ci1.crl
            X509v3 Key Usage: critical
                Digital Signature
            X509v3 Subject Alternative Name: 
                Registered ID:1.3.6.1.4.1.60883
            X509v3 Subject Key Identifier: 
                77:92:D0:D1:62:A8:FB:1B:06:57:5B:35:06:22:1F:0C:DE:0E:E2:59
            X509v3 Authority Key Identifier: 
                81:37:0F:51:25:D0:B1:D4:08:D4:C3:B2:32:E6:D2:5E:79:5B:EB:FB
    Signature Algorithm: ecdsa-with-SHA256
    Signature Value:
        30:46:02:21:00:a3:b1:63:b4:fb:a5:ef:cd:9d:d8:dd:8c:4e:
        5f:66:2c:48:60:1f:1e:1d:eb:36:40:c0:c2:93:a5:22:d0:95:
        6e:02:21:00:d0:a4:29:2d:7c:1b:3b:da:7e:21:0d:a8:56:74:
        ed:38:6f:c9:02:c2:bc:70:9f:23:9f:7e:a5:17:d6:bf:57:91
-----BEGIN CERTIFICATE-----
MIICkjCCAjegAwIBAgIQOXkRbgIQ5L/vPGBhMRxOyzAKBggqhkjOPQQDAjBEMRgw
FgYDVQQKEw9HU00gQXNzb2NpYXRpb24xKDAmBgNVBAMTH0dTTSBBc3NvY2lhdGlv
biAtIFJTUDIgUm9vdCBDSTEwHhcNMjMwODMxMDAwMDAwWhcNMjYwODMwMjM1OTU5
WjB+MQswCQYDVQQGEwJVUzERMA8GA1UECBMIVmlyZ2luaWExDzANBgNVBAcTBk1j
TGVhbjEgMB4GA1UEChMXUmlQU0lNIFRlY2hub2xvZ2llcyBJbmMxCzAJBgNVBAsT
AklUMRwwGgYDVQQDExNzbWRwcGx1cy5yaXBzaW0uY29tMFkwEwYHKoZIzj0CAQYI
KoZIzj0DAQcDQgAEg/TCPej3HugCLbuN5gWz0IN4YOIY36AxFh3KZm6dOYPsNP3Z
DHY1M65nEiwB5PtQIlGeTcmAzA++c+vPgr5DeaOB0DCBzTAXBgNVHSABAf8EDTAL
MAkGB2eBEgECAQQwTQYDVR0fBEYwRDBCoECgPoY8aHR0cDovL2dzbWEtY3JsLnN5
bWF1dGguY29tL29mZmxpbmVjYS9nc21hLXJzcDItcm9vdC1jaTEuY3JsMA4GA1Ud
DwEB/wQEAwIHgDATBgNVHREEDDAKiAgrBgEEAYPbUzAdBgNVHQ4EFgQUd5LQ0WKo
+xsGV1s1BiIfDN4O4lkwHwYDVR0jBBgwFoAUgTcPUSXQsdQI1MOyMubSXnlb6/sw
CgYIKoZIzj0EAwIDSQAwRgIhAKOxY7T7pe/NndjdjE5fZixIYB8eHes2QMDCk6Ui
0JVuAiEA0KQpLXwbO9p+IQ2oVnTtOG/JAsK8cJ8jn36lF9a/V5E=
-----END CERTIFICATE-----
