Certificate:
    Data:
        Version: 3 (0x2)
        Serial Number:
            05:37:85:c1:fb:fb:f2:de:04:b4:10:51:f5:8e:94:a3
        Signature Algorithm: ecdsa-with-SHA256
        Issuer:
            C = US
            O = Entrust, Inc.
            OU = See www.entrust.net/legal-terms
            OU = (c) 2016 Entrust, Inc. - for authorized use only
            CN = Entrust eSIM Certification Authority
        Validity
            Not Before: May 13 14:41:55 2024 GMT
            Not After : May 13 14:41:54 2026 GMT
        Subject:
            C = FR
            L = Courbevoie
            O = IDEMIA France
            CN = OT M-Connect EWA DP
            emailAddress = andrei.mihailescu@idemia.com
        Subject Public Key Info:
            Public Key Algorithm: id-ecPublicKey
                Public-Key: (256 bit)
                pub:
                    04:29:41:f9:d5:29:a9:f0:62:8b:21:6a:2e:e3:62:
                    dc:97:04:74:bb:31:3e:d2:de:0c:cf:b7:a8:a8:fb:
                    5f:85:49:8a:8a:5c:4d:75:71:3a:70:4c:af:d7:4b:
                    52:b9:f9:c0:86:5c:5e:57:1f:01:c6:d6:bc:38:de:
                    db:d0:b5:62:31
                ASN1 OID: prime256v1
                NIST CURVE: P-256
        X509v3 extensions:
            X509v3 Basic Constraints: critical
                CA:FALSE
            X509v3 Subject Key Identifier: 
                EE:B7:52:FD:58:B7:6F:0A:C3:8F:B9:BA:D8:FA:EC:36:EE:64:B2:A6
            X509v3 Authority Key Identifier: 
                16:70:4B:7F:35:1E:36:07:F1:8C:4B:70:00:5C:3A:00:3D:FD:41:4A
            X509v3 CRL Distribution Points: 
                Full Name:
                  URI:http://crl.entrust.net/entesimca.crl
            X509v3 Subject Alternative Name: 
                Registered ID:1.3.6.1.4.1.30703.836685.503.401.101
            X509v3 Key Usage: critical
                Digital Signature
            X509v3 Certificate Policies: critical
                Policy: 2.23.146.1.2.1.4
    Signature Algorithm: ecdsa-with-SHA256
    Signature Value:
        30:44:02:20:47:77:a9:f1:0f:c0:eb:61:be:a2:53:61:4b:26:
        41:38:ed:8b:6d:08:a1:43:e4:fc:85:65:c4:bc:a4:7f:34:01:
        02:20:46:31:36:2f:d1:00:18:91:f2:d3:f5:f8:2b:3a:83:ca:
        7f:08:55:4e:d8:63:6f:96:2e:e7:aa:2a:bb:7c:0e:0e
-----BEGIN CERTIFICATE-----
MIIDDDCCArOgAwIBAgIQBTeFwfv78t4EtBBR9Y6UozAKBggqhkjOPQQDAjCBuTEL
MAkGA1UEBhMCVVMxFjAUBgNVBAoTDUVudHJ1c3QsIEluYy4xKDAmBgNVBAsTH1Nl
ZSB3d3cuZW50cnVzdC5uZXQvbGVnYWwtdGVybXMxOTA3BgNVBAsTMChjKSAyMDE2
IEVudHJ1c3QsIEluYy4gLSBmb3IgYXV0aG9yaXplZCB1c2Ugb25seTEtMCsGA1UE
AxMkRW50cnVzdCBlU0lNIENlcnRpZmljYXRpb24gQXV0aG9yaXR5MB4XDTI0MDUx
MzE0NDE1NVoXDTI2MDUxMzE0NDE1NFowgYUxCzAJBgNVBAYTAkZSMRMwEQYDVQQH
EwpDb3VyYmV2b2llMRYwFAYDVQQKEw1JREVNSUEgRnJhbmNlMRwwGgYDVQQDExNP
VCBNLUNvbm5lY3QgRVdBIERQMSswKQYJKoZIhvcNAQkBFhxhbmRyZWkubWloYWls
ZXNjdUBpZGVtaWEuY29tMFkwEwYHKoZIzj0CAQYIKoZIzj0DAQcDQgAEKUH51Smp
8GKLIWou42LclwR0uzE+0t4Mz7eoqPtfhUmKilxNdXE6cEyv10tSufnAhlxeVx8B
xta8ON7b0LViMaOBzjCByzAMBgNVHRMBAf8EAjAAMB0GA1UdDgQWBBTut1L9WLdv
CsOPubrY+uw27mSypjAfBgNVHSMEGDAWgBQWcEt/NR42B/GMS3AAXDoAPf1BSjA1
BgNVHR8ELjAsMCqgKKAmhiRodHRwOi8vY3JsLmVudHJ1c3QubmV0L2VudGVzaW1j
YS5jcmwwGwYDVR0RBBQwEogQKwYBBAGB72+ziE2Dd4MRZTAOBgNVHQ8BAf8EBAMC
B4AwFwYDVR0gAQH/BA0wCzAJBgdngRIBAgEEMAoGCCqGSM49BAMCA0cAMEQCIEd3
qfEPwOthvqJTYUsmQTjti20IoUPk/IVlxLykfzQBAiBGMTYv0QAYkfLT9fgrOoPK
fwhVTthjb5Yu56oqu3wODg==
-----END CERTIFICATE-----
