Certificate:
    Data:
        Version: 3 (0x2)
        Serial Number:
            33:10:26:2d:95:4e:53:50:11:96:8b:24:c4:b6:20:03
        Signature Algorithm: ecdsa-with-SHA256
        Issuer: C=US, O=Entrust, Inc., OU=See www.entrust.net/legal-terms, OU=(c) 2016 Entrust, Inc. - for authorized use only, CN=Entrust eSIM Certification Authority
        Validity
            Not Before: Jun 27 15:26:55 2023 GMT
            Not After : Jun 27 15:26:54 2025 GMT
        Subject: C=GB, L=London, O=Truphone, CN=Truphone SM-DP+
        Subject Public Key Info:
            Public Key Algorithm: id-ecPublicKey
                Public-Key: (256 bit)
                pub:
                    04:bb:84:d5:a0:b0:cd:9d:3d:18:3f:ac:b3:20:cf:
                    ad:14:87:ec:d0:c1:f3:34:ab:cb:43:8b:3a:3b:81:
                    b5:d1:c1:9e:8f:d0:48:e1:56:98:dc:f1:72:62:80:
                    40:57:a7:64:f4:73:50:8b:c6:35:42:b6:62:81:e4:
                    18:cc:fb:5b:20
                ASN1 OID: prime256v1
                NIST CURVE: P-256
        X509v3 extensions:
            X509v3 Basic Constraints: critical
                CA:FALSE
            X509v3 Subject Key Identifier: 
                F7:5E:6A:5A:92:D0:E0:97:9F:4F:D7:65:B7:43:7B:04:5F:54:EB:DE
            X509v3 Authority Key Identifier: 
                16:70:4B:7F:35:1E:36:07:F1:8C:4B:70:00:5C:3A:00:3D:FD:41:4A
            X509v3 CRL Distribution Points: 
                Full Name:
                  URI:http://crl.entrust.net/entesimca.crl
            X509v3 Subject Alternative Name: 
                Registered ID:1.3.6.1.4.1.30277.1.1.1
            X509v3 Key Usage: critical
                Digital Signature
            X509v3 Certificate Policies: critical
                Policy: 2.23.146.1.2.1.4
    Signature Algorithm: ecdsa-with-SHA256
    Signature Value:
        30:46:02:21:00:89:4d:1c:83:2b:a9:4a:94:73:07:19:aa:d7:
        9d:33:44:8a:6b:50:b9:1f:63:11:d3:81:1c:9c:4d:4b:1a:01:
        67:02:21:00:f4:db:d7:a7:0e:0c:2b:68:d2:2a:bb:21:ad:2a:
        d9:15:f4:1e:f3:7d:69:44:26:c9:b5:45:5b:6e:21:d3:f7:98
-----BEGIN CERTIFICATE-----
MIICzjCCAnOgAwIBAgIQMxAmLZVOU1ARloskxLYgAzAKBggqhkjOPQQDAjCBuTEL
MAkGA1UEBhMCVVMxFjAUBgNVBAoTDUVudHJ1c3QsIEluYy4xKDAmBgNVBAsTH1Nl
ZSB3d3cuZW50cnVzdC5uZXQvbGVnYWwtdGVybXMxOTA3BgNVBAsTMChjKSAyMDE2
IEVudHJ1c3QsIEluYy4gLSBmb3IgYXV0aG9yaXplZCB1c2Ugb25seTEtMCsGA1UE
AxMkRW50cnVzdCBlU0lNIENlcnRpZmljYXRpb24gQXV0aG9yaXR5MB4XDTIzMDYy
NzE1MjY1NVoXDTI1MDYyNzE1MjY1NFowSzELMAkGA1UEBhMCR0IxDzANBgNVBAcT
BkxvbmRvbjERMA8GA1UEChMIVHJ1cGhvbmUxGDAWBgNVBAMTD1RydXBob25lIFNN
LURQKzBZMBMGByqGSM49AgEGCCqGSM49AwEHA0IABLuE1aCwzZ09GD+ssyDPrRSH
7NDB8zSry0OLOjuBtdHBno/QSOFWmNzxcmKAQFenZPRzUIvGNUK2YoHkGMz7WyCj
gckwgcYwDAYDVR0TAQH/BAIwADAdBgNVHQ4EFgQU915qWpLQ4JefT9dlt0N7BF9U
694wHwYDVR0jBBgwFoAUFnBLfzUeNgfxjEtwAFw6AD39QUowNQYDVR0fBC4wLDAq
oCigJoYkaHR0cDovL2NybC5lbnRydXN0Lm5ldC9lbnRlc2ltY2EuY3JsMBYGA1Ud
EQQPMA2ICysGAQQBgexFAQEBMA4GA1UdDwEB/wQEAwIHgDAXBgNVHSABAf8EDTAL
MAkGB2eBEgECAQQwCgYIKoZIzj0EAwIDSQAwRgIhAIlNHIMrqUqUcwcZqtedM0SK
a1C5H2MR04EcnE1LGgFnAiEA9NvXpw4MK2jSKrshrSrZFfQe831pRCbJtUVbbiHT
95g=
-----END CERTIFICATE-----
