Certificate:
    Data:
        Version: 3 (0x2)
        Serial Number:
            76:42:57:6b:9b:ad:80:e3:ee:28:de:f3:a0:55:85:43
        Signature Algorithm: ecdsa-with-SHA256
        Issuer: O=Symantec Corporation, CN=Symantec Corporation RSP Test Root CA - For Test Purposes Only
        Validity
            Not Before: Mar 25 00:00:00 2021 GMT
            Not After : Mar 24 23:59:59 2024 GMT
        Subject: CN=Truphone SM-DP+, O=Truphone LTD
        Subject Public Key Info:
            Public Key Algorithm: id-ecPublicKey
                Public-Key: (256 bit)
                pub:
                    04:ca:d0:05:cb:43:a5:22:5a:bb:2f:f8:0c:62:a3:
                    4b:f2:f3:44:f3:35:8b:22:03:84:be:29:86:34:cb:
                    db:ab:e9:e8:6e:b6:31:20:d7:9f:5d:3b:f5:f2:0d:
                    86:15:d0:a1:f8:39:66:2e:77:77:11:b4:e7:65:02:
                    1a:a3:f8:d2:dd
                ASN1 OID: prime256v1
                NIST CURVE: P-256
        X509v3 extensions:
            X509v3 Key Usage: critical
                Digital Signature
            X509v3 Subject Key Identifier: 
                72:C0:AF:A8:7D:98:5A:BB:85:56:96:03:32:3C:91:D6:FB:10:4A:92
            X509v3 Subject Alternative Name: 
                Registered ID:1.3.6.1.4.1.30277.1.1.2
            X509v3 Certificate Policies: critical
                Policy: 2.23.146.1.2.1.4
            X509v3 CRL Distribution Points: 
                Full Name:
                  URI:http://pki-crl.symauth.com/ca_a3dc2e3fea7708a11c889386d9d3a76f/LatestCRL.crl
            X509v3 Authority Key Identifier: 
                66:5A:14:33:D6:7C:1A:2C:5D:B8:B5:2C:96:7F:10:A0:57:BA:5C:B2
    Signature Algorithm: ecdsa-with-SHA256
    Signature Value:
        30:44:02:20:62:61:58:82:7f:f2:f5:69:e5:7a:0f:74:b3:e7:
        cd:3f:71:0d:7e:af:17:ef:03:bb:40:58:4f:f3:b6:ab:29:dd:
        02:20:65:be:94:75:79:d6:f0:5c:15:2d:d1:73:54:5b:cc:b6:
        06:24:99:d7:4b:fc:04:8b:0f:87:13:a2:2d:83:9d:f5
-----BEGIN CERTIFICATE-----
MIICejCCAiGgAwIBAgIQdkJXa5utgOPuKN7zoFWFQzAKBggqhkjOPQQDAjBoMR0w
GwYDVQQKExRTeW1hbnRlYyBDb3Jwb3JhdGlvbjFHMEUGA1UEAxM+U3ltYW50ZWMg
Q29ycG9yYXRpb24gUlNQIFRlc3QgUm9vdCBDQSAtIEZvciBUZXN0IFB1cnBvc2Vz
IE9ubHkwHhcNMjEwMzI1MDAwMDAwWhcNMjQwMzI0MjM1OTU5WjAxMRgwFgYDVQQD
DA9UcnVwaG9uZSBTTS1EUCsxFTATBgNVBAoMDFRydXBob25lIExURDBZMBMGByqG
SM49AgEGCCqGSM49AwEHA0IABMrQBctDpSJauy/4DGKjS/LzRPM1iyIDhL4phjTL
26vp6G62MSDXn1079fINhhXQofg5Zi53dxG052UCGqP40t2jgeMwgeAwDgYDVR0P
AQH/BAQDAgeAMB0GA1UdDgQWBBRywK+ofZhau4VWlgMyPJHW+xBKkjAWBgNVHREE
DzANiAsrBgEEAYHsRQEBAjAXBgNVHSABAf8EDTALMAkGB2eBEgECAQQwXQYDVR0f
BFYwVDBSoFCgToZMaHR0cDovL3BraS1jcmwuc3ltYXV0aC5jb20vY2FfYTNkYzJl
M2ZlYTc3MDhhMTFjODg5Mzg2ZDlkM2E3NmYvTGF0ZXN0Q1JMLmNybDAfBgNVHSME
GDAWgBRmWhQz1nwaLF24tSyWfxCgV7pcsjAKBggqhkjOPQQDAgNHADBEAiBiYViC
f/L1aeV6D3Sz580/cQ1+rxfvA7tAWE/ztqsp3QIgZb6UdXnW8FwVLdFzVFvMtgYk
mddL/ASLD4cToi2DnfU=
-----END CERTIFICATE-----
