Certificate:
    Data:
        Version: 3 (0x2)
        Serial Number:
            64:05:51:85:21:8b:d2:77:df:a4:7d:74:6d:99:43:24
        Signature Algorithm: ecdsa-with-SHA256
        Issuer: O=GSM Association, CN=GSM Association - RSP2 Root CI1
        Validity
            Not Before: Feb 27 00:00:00 2024 GMT
            Not After : Feb 26 23:59:59 2027 GMT
        Subject: C=GB, L=London, O=TP Global Operations Limited, OU=RSP, CN=1GLOBAL SM-DP+
        Subject Public Key Info:
            Public Key Algorithm: id-ecPublicKey
                Public-Key: (256 bit)
                pub:
                    04:6f:bf:48:59:21:58:49:0c:37:d6:53:80:f6:cf:
                    1c:15:ec:02:fb:0e:04:cb:97:88:a3:71:73:1b:d2:
                    af:a6:27:ea:90:6c:12:bd:02:b7:4a:05:c0:81:63:
                    ce:1e:ff:dc:35:73:32:dc:d9:c3:13:97:29:92:22:
                    21:d6:a7:a5:1c
                ASN1 OID: prime256v1
                NIST CURVE: P-256
        X509v3 extensions:
            X509v3 Certificate Policies: critical
                Policy: 2.23.146.1.2.1.4
            X509v3 CRL Distribution Points: 
                Full Name:
                  URI:http://gsma-crl.symauth.com/offlineca/gsma-rsp2-root-ci1.crl
            X509v3 Key Usage: critical
                Digital Signature
            X509v3 Subject Alternative Name: 
                Registered ID:1.3.6.1.4.1.30277.1.1.1
            X509v3 Subject Key Identifier: 
                18:F0:4C:54:D7:A6:17:35:3B:06:62:E1:BD:05:54:74:D1:9C:D3:3F
            X509v3 Authority Key Identifier: 
                81:37:0F:51:25:D0:B1:D4:08:D4:C3:B2:32:E6:D2:5E:79:5B:EB:FB
    Signature Algorithm: ecdsa-with-SHA256
    Signature Value:
        30:46:02:21:00:bf:bf:d9:27:94:95:d8:a0:95:31:e5:5c:97:
        28:c9:9b:7b:75:33:62:9f:b3:d5:64:ac:0c:5c:ad:09:40:59:
        72:02:21:00:f4:ba:f4:75:8e:94:d4:03:a6:f6:6e:b7:46:a3:
        c6:d2:fb:f2:4e:19:06:71:28:18:2e:77:94:fa:d1:fa:1f:ba
-----BEGIN CERTIFICATE-----
MIICgzCCAiigAwIBAgIQZAVRhSGL0nffpH10bZlDJDAKBggqhkjOPQQDAjBEMRgw
FgYDVQQKEw9HU00gQXNzb2NpYXRpb24xKDAmBgNVBAMTH0dTTSBBc3NvY2lhdGlv
biAtIFJTUDIgUm9vdCBDSTEwHhcNMjQwMjI3MDAwMDAwWhcNMjcwMjI2MjM1OTU5
WjBsMQswCQYDVQQGEwJHQjEPMA0GA1UEBxMGTG9uZG9uMSUwIwYDVQQKExxUUCBH
bG9iYWwgT3BlcmF0aW9ucyBMaW1pdGVkMQwwCgYDVQQLEwNSU1AxFzAVBgNVBAMT
DjFHTE9CQUwgU00tRFArMFkwEwYHKoZIzj0CAQYIKoZIzj0DAQcDQgAEb79IWSFY
SQw31lOA9s8cFewC+w4Ey5eIo3FzG9KvpifqkGwSvQK3SgXAgWPOHv/cNXMy3NnD
E5cpkiIh1qelHKOB0zCB0DAXBgNVHSABAf8EDTALMAkGB2eBEgECAQQwTQYDVR0f
BEYwRDBCoECgPoY8aHR0cDovL2dzbWEtY3JsLnN5bWF1dGguY29tL29mZmxpbmVj
YS9nc21hLXJzcDItcm9vdC1jaTEuY3JsMA4GA1UdDwEB/wQEAwIHgDAWBgNVHREE
DzANiAsrBgEEAYHsRQEBATAdBgNVHQ4EFgQUGPBMVNemFzU7BmLhvQVUdNGc0z8w
HwYDVR0jBBgwFoAUgTcPUSXQsdQI1MOyMubSXnlb6/swCgYIKoZIzj0EAwIDSQAw
RgIhAL+/2SeUldiglTHlXJcoyZt7dTNin7PVZKwMXK0JQFlyAiEA9Lr0dY6U1AOm
9m63RqPG0vvyThkGcSgYLneU+tH6H7o=
-----END CERTIFICATE-----
