Certificate:
    Data:
        Version: 3 (0x2)
        Serial Number: 103399 (0x193e7)
        Signature Algorithm: ecdsa-with-SHA256
        Issuer: C=CN, ST=BEIJING, L=BEIJING, OU=CTTL, O=CAICT, CN=Taier eSIM Root CA - NISTP256
        Validity
            Not Before: Jun 27 02:33:33 2018 GMT
            Not After : Jun 30 02:33:33 2028 GMT
        Subject: C=CN, OU=Innovative Business Department, O=Vsens, CN=Unicom Vsens Communication Co.Ltd
        Subject Public Key Info:
            Public Key Algorithm: id-ecPublicKey
                Public-Key: (256 bit)
                pub:
                    04:c3:c7:35:5b:75:d3:91:ae:a9:b2:36:71:a5:de:
                    65:39:ef:fc:77:55:bb:c8:3e:8d:58:55:04:e5:98:
                    52:e2:e8:20:af:d2:db:9c:c0:b3:b6:ba:9d:64:4b:
                    07:fb:c7:b9:79:df:72:7c:2e:8b:c1:b5:58:bd:3f:
                    ee:00:1b:b1:b4
                ASN1 OID: prime256v1
                NIST CURVE: P-256
        X509v3 extensions:
            X509v3 Authority Key Identifier: 
                14:80:30:FC:24:6C:02:FF:22:21:06:12:5A:8D:6B:DA:99:0A:FB:E9
            X509v3 Subject Key Identifier: 
                FC:2D:AC:32:E3:32:B3:D2:51:FD:DB:EC:D4:B8:5B:5C:C0:92:92:1B
            X509v3 Key Usage: critical
                Digital Signature
            X509v3 Certificate Policies: critical
                Policy: 2.23.146.1.2.1.4
            X509v3 Subject Alternative Name: 
                Registered ID:1.3.6.1.4.1.47814.101.8
            X509v3 CRL Distribution Points: 
                Full Name:
                  URI:http://111.204.176.254:18889/download/n1.crl
                Full Name:
                  URI:http://111.204.176.254:18889/download/n2.crl
    Signature Algorithm: ecdsa-with-SHA256
    Signature Value:
        30:44:02:20:5b:64:53:ef:bd:2b:79:8e:15:75:e8:d5:be:9d:
        25:a8:30:09:37:86:5c:b7:5a:d6:35:c0:81:43:3b:32:fc:56:
        02:20:56:d8:d6:37:99:a1:1f:ac:c4:78:66:86:fd:b8:6c:63:
        45:93:05:e6:47:2d:bc:e9:aa:4b:e2:45:00:22:29:3e
-----BEGIN CERTIFICATE-----
MIIC0TCCAnigAwIBAgIDAZPnMAoGCCqGSM49BAMCMHgxCzAJBgNVBAYTAkNOMRAw
DgYDVQQIDAdCRUlKSU5HMRAwDgYDVQQHDAdCRUlKSU5HMQ0wCwYDVQQLDARDVFRM
MQ4wDAYDVQQKDAVDQUlDVDEmMCQGA1UEAwwdVGFpZXIgZVNJTSBSb290IENBIC0g
TklTVFAyNTYwHhcNMTgwNjI3MDIzMzMzWhcNMjgwNjMwMDIzMzMzWjByMQswCQYD
VQQGEwJDTjEnMCUGA1UECwweSW5ub3ZhdGl2ZSBCdXNpbmVzcyBEZXBhcnRtZW50
MQ4wDAYDVQQKDAVWc2VuczEqMCgGA1UEAwwhVW5pY29tIFZzZW5zIENvbW11bmlj
YXRpb24gQ28uTHRkMFkwEwYHKoZIzj0CAQYIKoZIzj0DAQcDQgAEw8c1W3XTka6p
sjZxpd5lOe/8d1W7yD6NWFUE5ZhS4uggr9LbnMCztrqdZEsH+8e5ed9yfC6LwbVY
vT/uABuxtKOB9jCB8zAfBgNVHSMEGDAWgBQUgDD8JGwC/yIhBhJajWvamQr76TAd
BgNVHQ4EFgQU/C2sMuMys9JR/dvs1LhbXMCSkhswDgYDVR0PAQH/BAQDAgeAMBcG
A1UdIAEB/wQNMAswCQYHZ4ESAQIBBDAVBgNVHREEDjAMiAorBgEEAYL1RmUIMHEG
A1UdHwRqMGgwMqAwoC6GLGh0dHA6Ly8xMTEuMjA0LjE3Ni4yNTQ6MTg4ODkvZG93
bmxvYWQvbjEuY3JsMDKgMKAuhixodHRwOi8vMTExLjIwNC4xNzYuMjU0OjE4ODg5
L2Rvd25sb2FkL24yLmNybDAKBggqhkjOPQQDAgNHADBEAiBbZFPvvSt5jhV16NW+
nSWoMAk3hly3WtY1wIFDOzL8VgIgVtjWN5mhH6zEeGaG/bhsY0WTBeZHLbzpqkvi
RQAiKT4=
-----END CERTIFICATE-----
