Certificate:
    Data:
        Version: 3 (0x2)
        Serial Number: 110126 (0x1ae2e)
        Signature Algorithm: ecdsa-with-SHA256
        Issuer: C=CN, ST=JILIN, L=CHANGCHUN, OU=CUCA, O=CU, CN=China Unicom eSIM Root CA
        Validity
            Not Before: Mar 30 01:52:46 2020 GMT
            Not After : Mar 30 01:52:46 2025 GMT
        Subject: C=CN, OU=Innovative Business Department, O=Vsens, CN=Unicom Vsens Communication Co. Ltd
        Subject Public Key Info:
            Public Key Algorithm: id-ecPublicKey
                Public-Key: (256 bit)
                pub:
                    04:fc:22:bd:f3:b5:65:81:97:31:f2:aa:65:f8:ed:
                    3b:ef:37:98:5a:34:52:de:23:71:52:a1:fa:f4:30:
                    b4:e6:65:4b:0e:ae:41:15:2e:18:de:68:f3:3b:d9:
                    fa:8a:38:dc:fb:68:12:77:1d:4c:d0:5c:b9:32:6c:
                    78:22:f4:76:2c
                ASN1 OID: prime256v1
                NIST CURVE: P-256
        X509v3 extensions:
            X509v3 Authority Key Identifier: 
                16:B5:D1:60:48:E3:EA:02:BD:4B:60:6E:5F:77:A4:BF:20:80:8D:83
            X509v3 Subject Key Identifier: 
                44:7C:23:77:DE:49:6D:79:0B:0D:1E:A8:CB:23:42:BB:E7:A5:34:6F
            X509v3 Key Usage: critical
                Digital Signature
            X509v3 Certificate Policies: critical
                Policy: 2.23.146.1.2.1.4
            X509v3 Subject Alternative Name: 
                Registered ID:1.3.6.1.4.1.47814.101.8
            X509v3 CRL Distribution Points: 
                Full Name:
                  URI:http://esimcrl.uni-ca.com.cn:6666/download/n1.crl
                Full Name:
                  URI:http://esimcrl.uni-ca.com.cn:6666/download/n2.crl
    Signature Algorithm: ecdsa-with-SHA256
    Signature Value:
        30:45:02:21:00:ff:f6:bc:1e:f7:86:f6:96:e9:37:fb:4e:98:
        07:38:bc:4a:32:a5:dd:06:91:44:c9:7b:e8:17:9a:b8:a3:0d:
        94:02:20:1b:12:b7:c0:2c:43:4f:ca:4c:57:c6:92:f8:9f:10:
        1f:12:ed:5a:db:1d:1f:9d:5f:3a:ce:a6:51:de:18:2e:d5
-----BEGIN CERTIFICATE-----
MIIC1zCCAn2gAwIBAgIDAa4uMAoGCCqGSM49BAMCMHExCzAJBgNVBAYTAkNOMQ4w
DAYDVQQIEwVKSUxJTjESMBAGA1UEBxMJQ0hBTkdDSFVOMQ0wCwYDVQQLEwRDVUNB
MQswCQYDVQQKEwJDVTEiMCAGA1UEAxMZQ2hpbmEgVW5pY29tIGVTSU0gUm9vdCBD
QTAeFw0yMDAzMzAwMTUyNDZaFw0yNTAzMzAwMTUyNDZaMHMxCzAJBgNVBAYTAkNO
MScwJQYDVQQLEx5Jbm5vdmF0aXZlIEJ1c2luZXNzIERlcGFydG1lbnQxDjAMBgNV
BAoTBVZzZW5zMSswKQYDVQQDEyJVbmljb20gVnNlbnMgQ29tbXVuaWNhdGlvbiBD
by4gTHRkMFkwEwYHKoZIzj0CAQYIKoZIzj0DAQcDQgAE/CK987VlgZcx8qpl+O07
7zeYWjRS3iNxUqH69DC05mVLDq5BFS4Y3mjzO9n6ijjc+2gSdx1M0Fy5Mmx4IvR2
LKOCAQAwgf0wHwYDVR0jBBgwFoAUFrXRYEjj6gK9S2BuX3ekvyCAjYMwHQYDVR0O
BBYEFER8I3feSW15Cw0eqMsjQrvnpTRvMA4GA1UdDwEB/wQEAwIHgDAXBgNVHSAB
Af8EDTALMAkGB2eBEgECAQQwFQYDVR0RBA4wDIgKKwYBBAGC9UZlCDB7BgNVHR8E
dDByMDegNaAzhjFodHRwOi8vZXNpbWNybC51bmktY2EuY29tLmNuOjY2NjYvZG93
bmxvYWQvbjEuY3JsMDegNaAzhjFodHRwOi8vZXNpbWNybC51bmktY2EuY29tLmNu
OjY2NjYvZG93bmxvYWQvbjIuY3JsMAoGCCqGSM49BAMCA0gAMEUCIQD/9rwe94b2
luk3+06YBzi8SjKl3QaRRMl76BeauKMNlAIgGxK3wCxDT8pMV8aS+J8QHxLtWtsd
H51fOs6mUd4YLtU=
-----END CERTIFICATE-----
