Certificate:
    Data:
        Version: 3 (0x2)
        Serial Number: 1563070 (0x17d9be)
        Signature Algorithm: ecdsa-with-SHA256
        Issuer: C=CN, O=CMCA, CN=CMCA eSIM Root CA_NIST
        Validity
            Not Before: Dec 28 00:44:29 2022 GMT
            Not After : Dec 28 00:44:29 2024 GMT
        Subject: C=CN, O=Vsens, OU=Innovative Business Department, CN=Unicom Vsens Communication Co. Ltd
        Subject Public Key Info:
            Public Key Algorithm: id-ecPublicKey
                Public-Key: (256 bit)
                pub:
                    04:1e:8e:0c:54:5c:46:66:51:33:8c:a2:d9:43:d6:
                    ff:66:ad:4b:7c:9f:ea:20:5f:28:fe:44:4b:a8:f6:
                    ea:1c:b0:ab:ba:05:10:8e:4f:30:42:bb:17:a7:46:
                    7a:10:66:54:41:76:6b:94:0c:e5:3c:cb:85:2d:02:
                    0f:55:3b:1e:96
                ASN1 OID: prime256v1
                NIST CURVE: P-256
        X509v3 extensions:
            X509v3 Authority Key Identifier: 
                CD:F6:D1:C0:A7:B0:7F:98:A8:61:B6:E3:78:B8:2F:64:8D:99:66:3E
            X509v3 Subject Key Identifier: 
                83:C6:56:33:AA:26:16:43:FB:BF:64:61:FB:09:50:96:4D:0D:17:F9
            X509v3 Key Usage: critical
                Digital Signature
            X509v3 Certificate Policies: critical
                Policy: 2.23.146.1.2.1.4
            X509v3 Subject Alternative Name: 
                Registered ID:1.3.6.1.4.1.47814.101.8
            X509v3 CRL Distribution Points: 
                Full Name:
                  URI:http://221.176.65.55:8081/crldownload/nA.crl
                Full Name:
                  URI:http://221.176.65.55:8081/crldownload/nB.crl
    Signature Algorithm: ecdsa-with-SHA256
    Signature Value:
        30:45:02:20:6d:03:f9:28:71:67:8d:8d:fc:a7:f5:48:df:d8:
        20:1c:73:84:ac:f8:c5:24:22:0d:81:7f:77:9c:e7:29:1e:77:
        02:21:00:98:3c:fb:14:9b:49:0c:5b:df:d9:bb:17:bd:e0:4e:
        0e:bf:e3:62:6e:e4:13:44:7f:d9:95:f0:c4:04:9f:7b:ef
-----BEGIN CERTIFICATE-----
MIICmDCCAj6gAwIBAgIDF9m+MAoGCCqGSM49BAMCMD0xCzAJBgNVBAYTAkNOMQ0w
CwYDVQQKDARDTUNBMR8wHQYDVQQDDBZDTUNBIGVTSU0gUm9vdCBDQV9OSVNUMB4X
DTIyMTIyODAwNDQyOVoXDTI0MTIyODAwNDQyOVowczELMAkGA1UEBhMCQ04xDjAM
BgNVBAoMBVZzZW5zMScwJQYDVQQLDB5Jbm5vdmF0aXZlIEJ1c2luZXNzIERlcGFy
dG1lbnQxKzApBgNVBAMMIlVuaWNvbSBWc2VucyBDb21tdW5pY2F0aW9uIENvLiBM
dGQwWTATBgcqhkjOPQIBBggqhkjOPQMBBwNCAAQejgxUXEZmUTOMotlD1v9mrUt8
n+ogXyj+REuo9uocsKu6BRCOTzBCuxenRnoQZlRBdmuUDOU8y4UtAg9VOx6Wo4H2
MIHzMB8GA1UdIwQYMBaAFM320cCnsH+YqGG243i4L2SNmWY+MB0GA1UdDgQWBBSD
xlYzqiYWQ/u/ZGH7CVCWTQ0X+TAOBgNVHQ8BAf8EBAMCB4AwFwYDVR0gAQH/BA0w
CzAJBgdngRIBAgEEMBUGA1UdEQQOMAyICisGAQQBgvVGZQgwcQYDVR0fBGowaDAy
oDCgLoYsaHR0cDovLzIyMS4xNzYuNjUuNTU6ODA4MS9jcmxkb3dubG9hZC9uQS5j
cmwwMqAwoC6GLGh0dHA6Ly8yMjEuMTc2LjY1LjU1OjgwODEvY3JsZG93bmxvYWQv
bkIuY3JsMAoGCCqGSM49BAMCA0gAMEUCIG0D+ShxZ42N/Kf1SN/YIBxzhKz4xSQi
DYF/d5znKR53AiEAmDz7FJtJDFvf2bsXveBODr/jYm7kE0R/2ZXwxASfe+8=
-----END CERTIFICATE-----
