Certificate:
    Data:
        Version: 3 (0x2)
        Serial Number: 599439 (0x9258f)
        Signature Algorithm: ecdsa-with-SHA256
        Issuer:
            C = CN
            O = CMCA
            CN = CMCA eSIM Root CA_NIST
        Validity
            Not Before: Dec  6 09:06:38 2024 GMT
            Not After : Dec  6 09:06:38 2026 GMT
        Subject:
            C = CN
            O = Vsens
            OU = Innovative Business Department
            CN = Unicom Vsens Communication Co. Ltd
        Subject Public Key Info:
            Public Key Algorithm: id-ecPublicKey
                Public-Key: (256 bit)
                pub:
                    04:7e:33:36:53:94:a1:de:81:e2:80:32:85:9f:29:
                    32:de:63:4a:e7:b5:dc:35:9c:a6:18:0e:0a:9b:3f:
                    ed:72:d6:d2:02:ea:d8:c3:97:89:2a:d6:95:17:43:
                    a2:87:3d:6d:78:5e:8d:a1:4a:47:b0:74:34:1d:42:
                    5d:01:f3:74:f3
                ASN1 OID: prime256v1
                NIST CURVE: P-256
        X509v3 extensions:
            X509v3 Authority Key Identifier: 
                CD:F6:D1:C0:A7:B0:7F:98:A8:61:B6:E3:78:B8:2F:64:8D:99:66:3E
            X509v3 Subject Key Identifier: 
                2C:FD:86:A1:D7:BD:74:98:E6:8D:E7:AF:F7:10:0A:0F:19:63:A5:25
            X509v3 Key Usage: critical
                Digital Signature
            X509v3 Certificate Policies: critical
                Policy: 2.23.146.1.2.1.4
            X509v3 Subject Alternative Name: 
                Registered ID:1.3.6.1.4.1.47814.101.8
            X509v3 CRL Distribution Points: 
                Full Name:
                  URI:http://221.176.65.55:8081/crldownload/nA.crl
                Full Name:
                  URI:http://221.176.65.55:8081/crldownload/nB.crl
    Signature Algorithm: ecdsa-with-SHA256
    Signature Value:
        30:45:02:20:2b:98:f4:31:04:53:c9:2a:0c:c0:c0:ac:f5:5e:
        bc:bd:e7:d6:fc:de:3d:76:b6:35:ee:ee:96:0c:f2:ea:9c:87:
        02:21:00:b1:79:e7:04:d1:ff:f0:cc:41:29:00:81:39:a3:33:
        49:c8:4c:9e:fe:de:4b:22:51:98:36:44:ed:1f:10:c6:2f
-----BEGIN CERTIFICATE-----
MIICmDCCAj6gAwIBAgIDCSWPMAoGCCqGSM49BAMCMD0xCzAJBgNVBAYTAkNOMQ0w
CwYDVQQKDARDTUNBMR8wHQYDVQQDDBZDTUNBIGVTSU0gUm9vdCBDQV9OSVNUMB4X
DTI0MTIwNjA5MDYzOFoXDTI2MTIwNjA5MDYzOFowczELMAkGA1UEBhMCQ04xDjAM
BgNVBAoMBVZzZW5zMScwJQYDVQQLDB5Jbm5vdmF0aXZlIEJ1c2luZXNzIERlcGFy
dG1lbnQxKzApBgNVBAMMIlVuaWNvbSBWc2VucyBDb21tdW5pY2F0aW9uIENvLiBM
dGQwWTATBgcqhkjOPQIBBggqhkjOPQMBBwNCAAR+MzZTlKHegeKAMoWfKTLeY0rn
tdw1nKYYDgqbP+1y1tIC6tjDl4kq1pUXQ6KHPW14Xo2hSkewdDQdQl0B83Tzo4H2
MIHzMB8GA1UdIwQYMBaAFM320cCnsH+YqGG243i4L2SNmWY+MB0GA1UdDgQWBBQs
/Yah1710mOaN56/3EAoPGWOlJTAOBgNVHQ8BAf8EBAMCB4AwFwYDVR0gAQH/BA0w
CzAJBgdngRIBAgEEMBUGA1UdEQQOMAyICisGAQQBgvVGZQgwcQYDVR0fBGowaDAy
oDCgLoYsaHR0cDovLzIyMS4xNzYuNjUuNTU6ODA4MS9jcmxkb3dubG9hZC9uQS5j
cmwwMqAwoC6GLGh0dHA6Ly8yMjEuMTc2LjY1LjU1OjgwODEvY3JsZG93bmxvYWQv
bkIuY3JsMAoGCCqGSM49BAMCA0gAMEUCICuY9DEEU8kqDMDArPVevL3n1vzePXa2
Ne7ulgzy6pyHAiEAsXnnBNH/8MxBKQCBOaMzSchMnv7eSyJRmDZE7R8Qxi8=
-----END CERTIFICATE-----
