Certificate:
    Data:
        Version: 3 (0x2)
        Serial Number:
            5c:56:8c:79:d3:3d:6d:ca:07:b5:87:28:25:17:c1:c6:16:77:d6:ff
        Signature Algorithm: ecdsa-with-SHA256
        Issuer: C=CN, O=NETCA Certificate Authority, CN=CCS NETCA eSIM ECC RootCA
        Validity
            Not Before: Dec 25 16:00:00 2022 GMT
            Not After : Dec 30 16:00:00 2024 GMT
        Subject: C=CN, O=Vsens, OU=Innovative Business Department, CN=Unicom Vsens Communication Co. Ltd
        Subject Public Key Info:
            Public Key Algorithm: id-ecPublicKey
                Public-Key: (256 bit)
                pub:
                    04:e1:91:bd:c6:d9:1b:0e:4f:f7:6c:0e:49:74:d8:
                    c5:5c:36:b0:39:ee:c5:e8:a6:9b:1a:12:c2:cd:13:
                    03:b5:9e:13:a4:66:23:63:da:a0:5f:fd:8c:b1:a8:
                    94:02:a5:02:33:b4:f7:35:19:d5:eb:52:a2:40:5a:
                    c3:2d:00:4d:e8
                ASN1 OID: prime256v1
                NIST CURVE: P-256
        X509v3 extensions:
            X509v3 Authority Key Identifier: 
                D3:EF:83:FC:50:3F:9C:6E:C4:B7:F6:AE:05:5B:7F:13:73:D4:AB:1E
            X509v3 Subject Key Identifier: 
                FE:63:3D:16:52:D7:39:E2:6C:6D:C6:F7:F7:E8:A9:E3:3A:2C:58:5C
            X509v3 Key Usage: critical
                Digital Signature
            X509v3 Certificate Policies: critical
                Policy: 2.23.146.1.2.1.4
            X509v3 Subject Alternative Name: 
                Registered ID:1.3.6.1.4.1.47814.101.8
            X509v3 Basic Constraints: critical
                CA:FALSE
            X509v3 CRL Distribution Points: 
                Full Name:
                  URI:http://crl.cnca.net/esim/ccs/a.crl
    Signature Algorithm: ecdsa-with-SHA256
    Signature Value:
        30:45:02:21:00:fc:2d:7d:2c:d3:a0:89:08:4e:27:53:de:26:
        5e:d9:41:80:08:08:7b:49:c6:59:73:a4:a7:25:d7:76:3a:2f:
        7d:02:20:67:bc:aa:01:7e:16:25:5d:05:52:da:5b:1e:62:39:
        ae:dd:1a:c7:61:cb:b9:0f:4b:eb:5f:81:99:88:1c:f9:79
-----BEGIN CERTIFICATE-----
MIICkzCCAjmgAwIBAgIUXFaMedM9bcoHtYcoJRfBxhZ31v8wCgYIKoZIzj0EAwIw
VzELMAkGA1UEBhMCQ04xJDAiBgNVBAoMG05FVENBIENlcnRpZmljYXRlIEF1dGhv
cml0eTEiMCAGA1UEAwwZQ0NTIE5FVENBIGVTSU0gRUNDIFJvb3RDQTAeFw0yMjEy
MjUxNjAwMDBaFw0yNDEyMzAxNjAwMDBaMHMxCzAJBgNVBAYTAkNOMQ4wDAYDVQQK
EwVWc2VuczEnMCUGA1UECxMeSW5ub3ZhdGl2ZSBCdXNpbmVzcyBEZXBhcnRtZW50
MSswKQYDVQQDEyJVbmljb20gVnNlbnMgQ29tbXVuaWNhdGlvbiBDby4gTHRkMFkw
EwYHKoZIzj0CAQYIKoZIzj0DAQcDQgAE4ZG9xtkbDk/3bA5JdNjFXDawOe7F6Kab
GhLCzRMDtZ4TpGYjY9qgX/2MsaiUAqUCM7T3NRnV61KiQFrDLQBN6KOBxjCBwzAf
BgNVHSMEGDAWgBTT74P8UD+cbsS39q4FW38Tc9SrHjAdBgNVHQ4EFgQU/mM9FlLX
OeJsbcb39+ip4zosWFwwDgYDVR0PAQH/BAQDAgeAMBcGA1UdIAEB/wQNMAswCQYH
Z4ESAQIBBDAVBgNVHREEDjAMiAorBgEEAYL1RmUIMAwGA1UdEwEB/wQCMAAwMwYD
VR0fBCwwKjAooCagJIYiaHR0cDovL2NybC5jbmNhLm5ldC9lc2ltL2Njcy9hLmNy
bDAKBggqhkjOPQQDAgNIADBFAiEA/C19LNOgiQhOJ1PeJl7ZQYAICHtJxllzpKcl
13Y6L30CIGe8qgF+FiVdBVLaWx5iOa7dGsdhy7kPS+tfgZmIHPl5
-----END CERTIFICATE-----
