Certificate:
    Data:
        Version: 3 (0x2)
        Serial Number: 92830224864 (0x159d1cd1e0)
        Signature Algorithm: ecdsa-with-SHA256
        Issuer:
            C = CN
            O = NETCA Certificate Authority
            CN = CCS NETCA eSIM ECC RootCA
        Validity
            Not Before: Nov 13 08:50:03 2024 GMT
            Not After : Nov 13 08:50:03 2026 GMT
        Subject:
            C = CN
            O = Vsens
            OU = Innovative Business Department
            CN = Unicom Vsens Communication Co. Ltd
        Subject Public Key Info:
            Public Key Algorithm: id-ecPublicKey
                Public-Key: (256 bit)
                pub:
                    04:4d:c6:20:29:46:e3:64:a4:05:18:d1:22:df:93:
                    4a:ea:9e:d1:44:d1:45:33:42:15:b6:aa:93:9f:79:
                    5d:98:92:78:d6:5d:7d:2b:9a:a0:02:6b:78:78:a7:
                    c7:49:e5:a6:6d:6b:19:8c:86:63:3e:ee:ae:fc:98:
                    66:31:1b:57:12
                ASN1 OID: prime256v1
                NIST CURVE: P-256
        X509v3 extensions:
            X509v3 Subject Key Identifier: 
                20:53:54:E7:14:26:02:6D:68:21:0C:9D:F4:BC:1E:93:5B:8D:77:59
            X509v3 Key Usage: critical
                Digital Signature
            X509v3 Subject Alternative Name: 
                Registered ID:1.3.6.1.4.1.47814.101.8
            X509v3 Basic Constraints: critical
                CA:FALSE
            X509v3 CRL Distribution Points: 
                Full Name:
                  URI:http://crl.cnca.net/esim/ccs/a.crl
            X509v3 Certificate Policies: critical
                Policy: 2.23.146.1.2.1.4
            X509v3 Authority Key Identifier: 
                D3:EF:83:FC:50:3F:9C:6E:C4:B7:F6:AE:05:5B:7F:13:73:D4:AB:1E
    Signature Algorithm: ecdsa-with-SHA256
    Signature Value:
        30:46:02:21:00:9a:ad:10:c0:93:d5:ae:fd:df:38:61:07:f2:
        b1:71:f8:f4:70:59:18:b9:45:ad:ed:ab:aa:76:36:93:52:48:
        43:02:21:00:f4:a9:2b:dd:d3:7a:6b:49:db:c3:6d:20:10:35:
        f5:80:09:c8:d3:f6:e0:80:3d:34:bc:91:67:64:a5:ec:47:21
-----BEGIN CERTIFICATE-----
MIIChTCCAiqgAwIBAgIFFZ0c0eAwCgYIKoZIzj0EAwIwVzELMAkGA1UEBhMCQ04x
JDAiBgNVBAoMG05FVENBIENlcnRpZmljYXRlIEF1dGhvcml0eTEiMCAGA1UEAwwZ
Q0NTIE5FVENBIGVTSU0gRUNDIFJvb3RDQTAeFw0yNDExMTMwODUwMDNaFw0yNjEx
MTMwODUwMDNaMHMxCzAJBgNVBAYTAkNOMQ4wDAYDVQQKDAVWc2VuczEnMCUGA1UE
CwweSW5ub3ZhdGl2ZSBCdXNpbmVzcyBEZXBhcnRtZW50MSswKQYDVQQDDCJVbmlj
b20gVnNlbnMgQ29tbXVuaWNhdGlvbiBDby4gTHRkMFkwEwYHKoZIzj0CAQYIKoZI
zj0DAQcDQgAETcYgKUbjZKQFGNEi35NK6p7RRNFFM0IVtqqTn3ldmJJ41l19K5qg
Amt4eKfHSeWmbWsZjIZjPu6u/JhmMRtXEqOBxjCBwzAdBgNVHQ4EFgQUIFNU5xQm
Am1oIQyd9Lwek1uNd1kwDgYDVR0PAQH/BAQDAgeAMBUGA1UdEQQOMAyICisGAQQB
gvVGZQgwDAYDVR0TAQH/BAIwADAzBgNVHR8ELDAqMCigJqAkhiJodHRwOi8vY3Js
LmNuY2EubmV0L2VzaW0vY2NzL2EuY3JsMBcGA1UdIAEB/wQNMAswCQYHZ4ESAQIB
BDAfBgNVHSMEGDAWgBTT74P8UD+cbsS39q4FW38Tc9SrHjAKBggqhkjOPQQDAgNJ
ADBGAiEAmq0QwJPVrv3fOGEH8rFx+PRwWRi5Ra3tq6p2NpNSSEMCIQD0qSvd03pr
SdvDbSAQNfWACcjT9uCAPTS8kWdkpexHIQ==
-----END CERTIFICATE-----
