Certificate:
    Data:
        Version: 3 (0x2)
        Serial Number:
            0b:53:31:ac:cd:03:9a:84:b0:fe:28:2c:52:22:22:40
        Signature Algorithm: ecdsa-with-SHA256
        Issuer: O=GSM Association, CN=GSM Association - RSP2 Root CI1
        Validity
            Not Before: Oct  4 00:00:00 2018 GMT
            Not After : Oct  3 23:59:59 2021 GMT
        Subject: C=CN, ST=GUANGDONG, L=ZHUHAI, OU=Eastcompeace Technology Co., Ltd., O=Eastcompeace Technology Co., Ltd., CN=SM-DP+ DPauth
        Subject Public Key Info:
            Public Key Algorithm: id-ecPublicKey
                Public-Key: (256 bit)
                pub:
                    04:5c:cd:df:da:3c:b5:90:77:bc:a6:6c:3c:9a:06:
                    5b:e3:ce:35:98:d9:b0:8c:93:ad:eb:db:b2:53:e9:
                    cd:00:4b:80:a6:c9:e8:92:78:05:94:93:a2:66:ad:
                    dd:66:75:97:22:12:4f:c4:7f:22:9d:d6:87:61:9d:
                    e9:72:66:02:a1
                ASN1 OID: prime256v1
                NIST CURVE: P-256
        X509v3 extensions:
            X509v3 Certificate Policies: critical
                Policy: 2.23.146.1.2.1.4
            X509v3 CRL Distribution Points: 
                Full Name:
                  URI:http://gsma-crl.symauth.com/offlineca/gsma-rsp2-root-ci1.crl
            X509v3 Key Usage: critical
                Digital Signature
            X509v3 Subject Key Identifier: 
                38:30:5F:26:86:1A:BD:6E:16:30:AD:7D:2C:E2:5A:FE:0E:D3:CF:E0
            X509v3 Subject Alternative Name: 
                Registered ID:1.3.6.1.4.1.50461.1
            X509v3 Authority Key Identifier: 
                81:37:0F:51:25:D0:B1:D4:08:D4:C3:B2:32:E6:D2:5E:79:5B:EB:FB
    Signature Algorithm: ecdsa-with-SHA256
    Signature Value:
        30:45:02:20:06:63:36:ac:4d:d0:1f:21:40:97:27:56:06:e7:
        ee:31:2c:06:bc:eb:00:22:32:1e:87:7d:8b:81:ee:a4:2f:35:
        02:21:00:bb:bc:8e:9c:2a:1c:23:be:64:72:df:35:63:85:b0:
        5d:1e:4a:4c:ea:4a:d0:f5:ac:44:cf:b4:09:1d:da:cb:ca
-----BEGIN CERTIFICATE-----
MIICtzCCAl2gAwIBAgIQC1MxrM0DmoSw/igsUiIiQDAKBggqhkjOPQQDAjBEMRgw
FgYDVQQKEw9HU00gQXNzb2NpYXRpb24xKDAmBgNVBAMTH0dTTSBBc3NvY2lhdGlv
biAtIFJTUDIgUm9vdCBDSTEwHhcNMTgxMDA0MDAwMDAwWhcNMjExMDAzMjM1OTU5
WjCBojELMAkGA1UEBhMCQ04xEjAQBgNVBAgMCUdVQU5HRE9ORzEPMA0GA1UEBwwG
WkhVSEFJMSowKAYDVQQLDCFFYXN0Y29tcGVhY2UgVGVjaG5vbG9neSBDby4sIEx0
ZC4xKjAoBgNVBAoMIUVhc3Rjb21wZWFjZSBUZWNobm9sb2d5IENvLiwgTHRkLjEW
MBQGA1UEAwwNU00tRFArIERQYXV0aDBZMBMGByqGSM49AgEGCCqGSM49AwEHA0IA
BFzN39o8tZB3vKZsPJoGW+PONZjZsIyTrevbslPpzQBLgKbJ6JJ4BZSTomat3WZ1
lyIST8R/Ip3Wh2Gd6XJmAqGjgdEwgc4wFwYDVR0gAQH/BA0wCzAJBgdngRIBAgEE
ME0GA1UdHwRGMEQwQqBAoD6GPGh0dHA6Ly9nc21hLWNybC5zeW1hdXRoLmNvbS9v
ZmZsaW5lY2EvZ3NtYS1yc3AyLXJvb3QtY2kxLmNybDAOBgNVHQ8BAf8EBAMCB4Aw
HQYDVR0OBBYEFDgwXyaGGr1uFjCtfSziWv4O08/gMBQGA1UdEQQNMAuICSsGAQQB
g4odATAfBgNVHSMEGDAWgBSBNw9RJdCx1AjUw7Iy5tJeeVvr+zAKBggqhkjOPQQD
AgNIADBFAiAGYzasTdAfIUCXJ1YG5+4xLAa86wAiMh6HfYuB7qQvNQIhALu8jpwq
HCO+ZHLfNWOFsF0eSkzqStD1rETPtAkd2svK
-----END CERTIFICATE-----
