Certificate:
    Data:
        Version: 3 (0x2)
        Serial Number:
            77:15:d5:e7:04:4b:f1:57:18:4f:a5:66:96:5a:b3:1f
        Signature Algorithm: ecdsa-with-SHA256
        Issuer: O=GSM Association, CN=GSM Association - RSP2 Root CI1
        Validity
            Not Before: Feb 28 00:00:00 2023 GMT
            Not After : Feb 27 23:59:59 2026 GMT
        Subject: C=CN, ST=GUANGDONG, L=ZHUHAI, OU=Eastcompeace Technology Co., Ltd., O=Eastcompeace Technology Co., Ltd., CN=Eastcompeace RSP
        Subject Public Key Info:
            Public Key Algorithm: id-ecPublicKey
                Public-Key: (256 bit)
                pub:
                    04:4a:1a:ff:e2:11:0d:92:e8:b8:d7:b3:c8:5e:b9:
                    1c:08:5f:e5:37:af:43:53:7b:d9:17:2d:c8:74:a5:
                    94:d3:bf:f6:3a:d9:3d:96:03:d1:12:df:c5:84:f3:
                    23:17:b8:5e:1b:04:66:87:10:23:ae:48:ad:94:65:
                    0d:81:68:b8:b5
                ASN1 OID: prime256v1
                NIST CURVE: P-256
        X509v3 extensions:
            X509v3 Certificate Policies: critical
                Policy: 2.23.146.1.2.1.4
            X509v3 CRL Distribution Points: 
                Full Name:
                  URI:http://gsma-crl.symauth.com/offlineca/gsma-rsp2-root-ci1.crl
            X509v3 Key Usage: critical
                Digital Signature
            X509v3 Subject Alternative Name: 
                Registered ID:1.3.6.1.4.1.50461.1
            X509v3 Subject Key Identifier: 
                56:C8:06:E3:A3:43:9C:46:7E:29:0C:43:DB:FE:C2:F6:0A:B8:7E:ED
            X509v3 Authority Key Identifier: 
                81:37:0F:51:25:D0:B1:D4:08:D4:C3:B2:32:E6:D2:5E:79:5B:EB:FB
    Signature Algorithm: ecdsa-with-SHA256
    Signature Value:
        30:45:02:21:00:f7:1b:8c:49:0d:ed:77:35:5f:f4:3f:11:88:
        13:e5:16:8d:e0:43:99:b8:70:ef:70:55:cf:c3:9b:ce:f9:cb:
        50:02:20:49:30:00:70:ba:fe:6b:92:9f:ca:bd:7e:1c:d5:34:
        02:45:93:49:c9:7a:59:b5:d1:84:6f:e4:b8:bb:89:1f:43
-----BEGIN CERTIFICATE-----
MIICujCCAmCgAwIBAgIQdxXV5wRL8VcYT6VmllqzHzAKBggqhkjOPQQDAjBEMRgw
FgYDVQQKEw9HU00gQXNzb2NpYXRpb24xKDAmBgNVBAMTH0dTTSBBc3NvY2lhdGlv
biAtIFJTUDIgUm9vdCBDSTEwHhcNMjMwMjI4MDAwMDAwWhcNMjYwMjI3MjM1OTU5
WjCBpTELMAkGA1UEBhMCQ04xEjAQBgNVBAgMCUdVQU5HRE9ORzEPMA0GA1UEBwwG
WkhVSEFJMSowKAYDVQQLDCFFYXN0Y29tcGVhY2UgVGVjaG5vbG9neSBDby4sIEx0
ZC4xKjAoBgNVBAoMIUVhc3Rjb21wZWFjZSBUZWNobm9sb2d5IENvLiwgTHRkLjEZ
MBcGA1UEAwwQRWFzdGNvbXBlYWNlIFJTUDBZMBMGByqGSM49AgEGCCqGSM49AwEH
A0IABEoa/+IRDZLouNezyF65HAhf5TevQ1N72RctyHSllNO/9jrZPZYD0RLfxYTz
Ixe4XhsEZocQI65IrZRlDYFouLWjgdEwgc4wFwYDVR0gAQH/BA0wCzAJBgdngRIB
AgEEME0GA1UdHwRGMEQwQqBAoD6GPGh0dHA6Ly9nc21hLWNybC5zeW1hdXRoLmNv
bS9vZmZsaW5lY2EvZ3NtYS1yc3AyLXJvb3QtY2kxLmNybDAOBgNVHQ8BAf8EBAMC
B4AwFAYDVR0RBA0wC4gJKwYBBAGDih0BMB0GA1UdDgQWBBRWyAbjo0OcRn4pDEPb
/sL2Crh+7TAfBgNVHSMEGDAWgBSBNw9RJdCx1AjUw7Iy5tJeeVvr+zAKBggqhkjO
PQQDAgNIADBFAiEA9xuMSQ3tdzVf9D8RiBPlFo3gQ5m4cO9wVc/Dm875y1ACIEkw
AHC6/muSn8q9fhzVNAJFk0nJelm10YRv5Li7iR9D
-----END CERTIFICATE-----
