Certificate:
    Data:
        Version: 3 (0x2)
        Serial Number:
            6f:58:b8:27:e3:5f:3a:67:ba:60:af:3c:79:38:77:a8
        Signature Algorithm: ecdsa-with-SHA256
        Issuer: O=Symantec Corporation, CN=Symantec Corporation RSP Test Root CA - For Test Purposes Only
        Validity
            Not Before: Sep 27 00:00:00 2017 GMT
            Not After : Sep 26 23:59:59 2020 GMT
        Subject: CN=MC4 SMDP TEST v2, O=Oberthur Technologies
        Subject Public Key Info:
            Public Key Algorithm: id-ecPublicKey
                Public-Key: (256 bit)
                pub:
                    04:80:8b:b3:4e:6e:bd:44:7f:55:bd:49:cb:50:f7:
                    5e:25:9e:c8:a2:59:e4:96:9b:74:96:3a:9c:2f:49:
                    3c:dd:03:d1:04:13:bd:04:76:36:a2:b3:dd:15:82:
                    40:08:cd:a4:6e:fc:f9:8f:bb:35:07:86:f9:77:fc:
                    40:36:82:5a:15
                ASN1 OID: prime256v1
                NIST CURVE: P-256
        X509v3 extensions:
            X509v3 Key Usage: critical
                Digital Signature
            X509v3 Subject Key Identifier: 
                49:CB:88:F6:D7:11:CE:4E:36:D9:71:C1:88:58:EE:FC:3A:CB:34:25
            X509v3 Subject Alternative Name: 
                Registered ID:1.3.6.1.4.1.30703.836685.502.30703
            X509v3 Certificate Policies: critical
                Policy: 2.23.146.1.2.1.4
            X509v3 CRL Distribution Points: 
                Full Name:
                  URI:http://pki-crl.symauth.com/ca_a3dc2e3fea7708a11c889386d9d3a76f/LatestCRL.crl
            X509v3 Authority Key Identifier: 
                66:5A:14:33:D6:7C:1A:2C:5D:B8:B5:2C:96:7F:10:A0:57:BA:5C:B2
    Signature Algorithm: ecdsa-with-SHA256
    Signature Value:
        30:46:02:21:00:d9:ff:d6:03:97:88:a1:fe:d4:c5:1d:15:b6:
        6e:46:b0:93:3b:3f:42:e9:57:a6:1c:88:34:99:86:22:ea:39:
        8f:02:21:00:ce:e7:ee:7c:1e:a6:61:a6:c8:21:4a:73:1e:76:
        41:c3:8d:d2:e2:ae:23:bd:0c:19:d0:84:34:14:1d:1e:19:0e
-----BEGIN CERTIFICATE-----
MIICizCCAjCgAwIBAgIQb1i4J+NfOme6YK88eTh3qDAKBggqhkjOPQQDAjBoMR0w
GwYDVQQKExRTeW1hbnRlYyBDb3Jwb3JhdGlvbjFHMEUGA1UEAxM+U3ltYW50ZWMg
Q29ycG9yYXRpb24gUlNQIFRlc3QgUm9vdCBDQSAtIEZvciBUZXN0IFB1cnBvc2Vz
IE9ubHkwHhcNMTcwOTI3MDAwMDAwWhcNMjAwOTI2MjM1OTU5WjA7MRkwFwYDVQQD
DBBNQzQgU01EUCBURVNUIHYyMR4wHAYDVQQKDBVPYmVydGh1ciBUZWNobm9sb2dp
ZXMwWTATBgcqhkjOPQIBBggqhkjOPQMBBwNCAASAi7NObr1Ef1W9SctQ914lnsii
WeSWm3SWOpwvSTzdA9EEE70Edjais90VgkAIzaRu/PmPuzUHhvl3/EA2gloVo4Ho
MIHlMA4GA1UdDwEB/wQEAwIHgDAdBgNVHQ4EFgQUScuI9tcRzk422XHBiFju/DrL
NCUwGwYDVR0RBBQwEogQKwYBBAGB72+ziE2DdoHvbzAXBgNVHSABAf8EDTALMAkG
B2eBEgECAQQwXQYDVR0fBFYwVDBSoFCgToZMaHR0cDovL3BraS1jcmwuc3ltYXV0
aC5jb20vY2FfYTNkYzJlM2ZlYTc3MDhhMTFjODg5Mzg2ZDlkM2E3NmYvTGF0ZXN0
Q1JMLmNybDAfBgNVHSMEGDAWgBRmWhQz1nwaLF24tSyWfxCgV7pcsjAKBggqhkjO
PQQDAgNJADBGAiEA2f/WA5eIof7UxR0Vtm5GsJM7P0LpV6YciDSZhiLqOY8CIQDO
5+58HqZhpsghSnMedkHDjdLiriO9DBnQhDQUHR4ZDg==
-----END CERTIFICATE-----
