Certificate:
    Data:
        Version: 3 (0x2)
        Serial Number:
            34:9e:a2:32:bf:e4:a6:32:85:bc:b1:34:ea:da:ac:77
        Signature Algorithm: ecdsa-with-SHA256
        Issuer: O=GSM Association, CN=GSM Association - RSP2 Root CI1
        Validity
            Not Before: Jun 16 00:00:00 2021 GMT
            Not After : Jun 15 23:59:59 2024 GMT
        Subject: C=RU, L=Moscow, O=T2 Mobile LLC, CN=Tele2 SM-DP+
        Subject Public Key Info:
            Public Key Algorithm: id-ecPublicKey
                Public-Key: (256 bit)
                pub:
                    04:b7:7e:2d:75:b9:14:92:0c:1c:cb:4e:fd:09:10:
                    d8:4e:3a:ba:09:1d:9f:ef:cf:ba:05:8e:6d:ed:7b:
                    4a:1d:86:90:0f:43:fb:35:4c:27:b3:9d:d0:2c:ec:
                    b3:01:50:3a:79:88:48:16:65:4a:89:0b:27:3a:91:
                    d7:66:21:ae:53
                ASN1 OID: prime256v1
                NIST CURVE: P-256
        X509v3 extensions:
            X509v3 Certificate Policies: critical
                Policy: 2.23.146.1.2.1.4
            X509v3 CRL Distribution Points: 
                Full Name:
                  URI:http://gsma-crl.symauth.com/offlineca/gsma-rsp2-root-ci1.crl
            X509v3 Key Usage: critical
                Digital Signature
            X509v3 Subject Alternative Name: 
                Registered ID:1.3.6.1.4.1.56842.10
            X509v3 Subject Key Identifier: 
                CF:10:33:7C:D6:98:CE:AB:3B:3A:E2:71:53:7C:D4:C7:A6:D7:6E:49
            X509v3 Authority Key Identifier: 
                81:37:0F:51:25:D0:B1:D4:08:D4:C3:B2:32:E6:D2:5E:79:5B:EB:FB
    Signature Algorithm: ecdsa-with-SHA256
    Signature Value:
        30:45:02:21:00:8b:9a:7a:3b:67:37:64:76:8b:dc:dc:ea:ac:
        56:76:e6:9e:d7:5b:e8:06:b0:b7:2d:3f:33:eb:f0:ef:9a:40:
        cf:02:20:0d:84:bf:d5:a0:38:7b:39:13:49:30:e2:f4:b1:3d:
        74:b9:c3:a3:37:e9:65:e9:12:7a:76:a2:af:0b:9d:7c:67
-----BEGIN CERTIFICATE-----
MIICYTCCAgegAwIBAgIQNJ6iMr/kpjKFvLE06tqsdzAKBggqhkjOPQQDAjBEMRgw
FgYDVQQKEw9HU00gQXNzb2NpYXRpb24xKDAmBgNVBAMTH0dTTSBBc3NvY2lhdGlv
biAtIFJTUDIgUm9vdCBDSTEwHhcNMjEwNjE2MDAwMDAwWhcNMjQwNjE1MjM1OTU5
WjBNMQswCQYDVQQGEwJSVTEPMA0GA1UEBwwGTW9zY293MRYwFAYDVQQKDA1UMiBN
b2JpbGUgTExDMRUwEwYDVQQDDAxUZWxlMiBTTS1EUCswWTATBgcqhkjOPQIBBggq
hkjOPQMBBwNCAAS3fi11uRSSDBzLTv0JENhOOroJHZ/vz7oFjm3te0odhpAPQ/s1
TCezndAs7LMBUDp5iEgWZUqJCyc6kddmIa5To4HRMIHOMBcGA1UdIAEB/wQNMAsw
CQYHZ4ESAQIBBDBNBgNVHR8ERjBEMEKgQKA+hjxodHRwOi8vZ3NtYS1jcmwuc3lt
YXV0aC5jb20vb2ZmbGluZWNhL2dzbWEtcnNwMi1yb290LWNpMS5jcmwwDgYDVR0P
AQH/BAQDAgeAMBQGA1UdEQQNMAuICSsGAQQBg7wKCjAdBgNVHQ4EFgQUzxAzfNaY
zqs7OuJxU3zUx6bXbkkwHwYDVR0jBBgwFoAUgTcPUSXQsdQI1MOyMubSXnlb6/sw
CgYIKoZIzj0EAwIDSAAwRQIhAIuaejtnN2R2i9zc6qxWduae11voBrC3LT8z6/Dv
mkDPAiANhL/VoDh7ORNJMOL0sT10ucOjN+ll6RJ6dqKvC518Zw==
-----END CERTIFICATE-----
