Certificate:
    Data:
        Version: 3 (0x2)
        Serial Number: 4325891 (0x420203)
        Signature Algorithm: ecdsa-with-SHA256
        Issuer: C=DE, CN=SubMan V4.2 CI, O=Giesecke and Devrient, OU=Mobile Security
        Validity
            Not Before: Aug 11 12:00:00 2016 GMT
            Not After : Dec 31 12:00:00 2025 GMT
        Subject: C=DE, O=Giesecke and Devrient, OU=Mobile Security, CN=SubMan V4.2 DP
        Subject Public Key Info:
            Public Key Algorithm: id-ecPublicKey
                Public-Key: (256 bit)
                pub:
                    04:4d:e6:92:f3:c3:f1:19:88:9f:20:dd:57:74:9a:
                    71:a7:f5:fb:8c:a7:82:ab:cc:ed:0e:35:58:0b:8a:
                    cd:dd:fa:92:47:01:7f:02:07:2c:b5:84:10:b9:a9:
                    a9:58:65:6d:bc:bf:f2:40:0d:ef:90:b1:8f:55:4c:
                    c9:21:77:4b:09
                ASN1 OID: prime256v1
                NIST CURVE: P-256
        X509v3 extensions:
            X509v3 Key Usage: critical
                Digital Signature
            X509v3 Certificate Policies: critical
                Policy: 2.23.146.1.2.1.4
            X509v3 Subject Key Identifier: 
                96:52:4C:97:53:24:7E:A8:0A:1F:98:74:45:F5:4C:7A:47:23:D7:19
            X509v3 Authority Key Identifier: 
                13:7B:D9:96:CB:67:F5:AA:B8:ED:BD:98:50:D6:51:AA:CB:95:2F:0F
            X509v3 Subject Alternative Name: 
                Registered ID:1.3.6.1.4.1.11791.104.90.3.4
            X509v3 CRL Distribution Points: 
                Full Name:
                  URI:http://gi-de.com/test.crl.pem
    Signature Algorithm: ecdsa-with-SHA256
    Signature Value:
        30:45:02:20:2c:9c:9f:bc:49:bb:f6:3d:c6:c0:4c:82:88:d5:
        f3:6d:fd:72:ff:39:27:45:ab:a3:ae:9d:1b:20:90:e3:10:3d:
        02:21:00:94:60:1a:9b:7d:5d:57:f9:2e:94:3a:87:0c:fd:fd:
        af:fe:17:07:5f:43:a4:53:49:59:ab:fc:a9:bb:d8:61:58
-----BEGIN CERTIFICATE-----
MIICajCCAhCgAwIBAgIDQgIDMAoGCCqGSM49BAMCMGAxCzAJBgNVBAYTAkRFMRcw
FQYDVQQDEw5TdWJNYW4gVjQuMiBDSTEeMBwGA1UEChMVR2llc2Vja2UgYW5kIERl
dnJpZW50MRgwFgYDVQQLEw9Nb2JpbGUgU2VjdXJpdHkwIhgPMjAxNjA4MTExMjAw
MDBaGA8yMDI1MTIzMTEyMDAwMFowYDELMAkGA1UEBhMCREUxHjAcBgNVBAoTFUdp
ZXNlY2tlIGFuZCBEZXZyaWVudDEYMBYGA1UECxMPTW9iaWxlIFNlY3VyaXR5MRcw
FQYDVQQDEw5TdWJNYW4gVjQuMiBEUDBZMBMGByqGSM49AgEGCCqGSM49AwEHA0IA
BE3mkvPD8RmInyDdV3Sacaf1+4yngqvM7Q41WAuKzd36kkcBfwIHLLWEELmpqVhl
bby/8kAN75Cxj1VMySF3SwmjgbQwgbEwDgYDVR0PAQH/BAQDAgeAMBcGA1UdIAEB
/wQNMAswCQYHZ4ESAQIBBDAdBgNVHQ4EFgQUllJMl1MkfqgKH5h0RfVMekcj1xkw
HwYDVR0jBBgwFoAUE3vZlstn9aq47b2YUNZRqsuVLw8wFgYDVR0RBA8wDYgLKwYB
BAHcD2haAwQwLgYDVR0fBCcwJTAjoCGgH4YdaHR0cDovL2dpLWRlLmNvbS90ZXN0
LmNybC5wZW0wCgYIKoZIzj0EAwIDSAAwRQIgLJyfvEm79j3GwEyCiNXzbf1y/zkn
Raujrp0bIJDjED0CIQCUYBqbfV1X+S6UOocM/f2v/hcHX0OkU0lZq/ypu9hhWA==
-----END CERTIFICATE-----
