Certificate:
    Data:
        Version: 3 (0x2)
        Serial Number:
            37:0b:43:5b:24:3d:05:eb:b4:e0:38:81:c5:2a:8c:82
        Signature Algorithm: ecdsa-with-SHA256
        Issuer: O=GSM Association, CN=GSM Association - RSP2 Root CI1
        Validity
            Not Before: Dec  6 00:00:00 2023 GMT
            Not After : Dec  5 23:59:59 2026 GMT
        Subject: O=Hengbao Corporation Limited, CN=dpp.rsp.esim
        Subject Public Key Info:
            Public Key Algorithm: id-ecPublicKey
                Public-Key: (256 bit)
                pub:
                    04:8b:62:c1:f3:7c:8d:cd:8e:b1:b5:86:b2:38:6e:
                    cf:c0:76:43:8d:97:ef:3c:dc:ba:49:ef:46:95:a6:
                    c5:2f:1a:4a:0a:d9:55:f2:02:7b:95:d5:c4:b6:9e:
                    20:02:57:15:3f:66:9c:6f:a6:f8:2c:e7:7f:f3:97:
                    44:88:86:63:cd
                ASN1 OID: prime256v1
                NIST CURVE: P-256
        X509v3 extensions:
            X509v3 Subject Key Identifier: 
                D7:0F:BD:77:26:28:06:B5:E1:79:D2:1F:74:BC:FA:98:44:DC:DC:EC
            X509v3 Certificate Policies: critical
                Policy: 2.23.146.1.2.1.4
            X509v3 CRL Distribution Points: 
                Full Name:
                  URI:http://gsma-crl.symauth.com/offlineca/gsma-rsp2-root-ci1.crl
            X509v3 Key Usage: critical
                Digital Signature
            X509v3 Subject Alternative Name: 
                Registered ID:1.3.6.1.4.1.54235.1.101.3.10.302
            X509v3 Authority Key Identifier: 
                81:37:0F:51:25:D0:B1:D4:08:D4:C3:B2:32:E6:D2:5E:79:5B:EB:FB
    Signature Algorithm: ecdsa-with-SHA256
    Signature Value:
        30:45:02:20:16:dd:29:00:d5:61:77:94:ed:6e:ab:6f:cf:90:
        e7:7b:57:60:21:f8:31:94:b4:c1:6b:8e:c0:82:d7:94:02:70:
        02:21:00:a4:21:c2:d5:b7:02:40:02:b5:c6:48:fa:c1:1c:98:
        f0:1b:3a:92:d6:cc:e2:b8:20:9e:e5:23:90:4f:0f:0e:73
-----BEGIN CERTIFICATE-----
MIICVjCCAfygAwIBAgIQNwtDWyQ9Beu04DiBxSqMgjAKBggqhkjOPQQDAjBEMRgw
FgYDVQQKEw9HU00gQXNzb2NpYXRpb24xKDAmBgNVBAMTH0dTTSBBc3NvY2lhdGlv
biAtIFJTUDIgUm9vdCBDSTEwHhcNMjMxMjA2MDAwMDAwWhcNMjYxMjA1MjM1OTU5
WjA9MSQwIgYDVQQKExtIZW5nYmFvIENvcnBvcmF0aW9uIExpbWl0ZWQxFTATBgNV
BAMTDGRwcC5yc3AuZXNpbTBZMBMGByqGSM49AgEGCCqGSM49AwEHA0IABItiwfN8
jc2OsbWGsjhuz8B2Q42X7zzcuknvRpWmxS8aSgrZVfICe5XVxLaeIAJXFT9mnG+m
+Cznf/OXRIiGY82jgdYwgdMwHQYDVR0OBBYEFNcPvXcmKAa14XnSH3S8+phE3Nzs
MBcGA1UdIAEB/wQNMAswCQYHZ4ESAQIBBDBNBgNVHR8ERjBEMEKgQKA+hjxodHRw
Oi8vZ3NtYS1jcmwuc3ltYXV0aC5jb20vb2ZmbGluZWNhL2dzbWEtcnNwMi1yb290
LWNpMS5jcmwwDgYDVR0PAQH/BAQDAgeAMBkGA1UdEQQSMBCIDisGAQQBg6dbAWUD
CoIuMB8GA1UdIwQYMBaAFIE3D1El0LHUCNTDsjLm0l55W+v7MAoGCCqGSM49BAMC
A0gAMEUCIBbdKQDVYXeU7W6rb8+Q53tXYCH4MZS0wWuOwILXlAJwAiEApCHC1bcC
QAK1xkj6wRyY8Bs6ktbM4rggnuUjkE8PDnM=
-----END CERTIFICATE-----
