Certificate:
    Data:
        Version: 3 (0x2)
        Serial Number: 1562954 (0x17d94a)
        Signature Algorithm: ecdsa-with-SHA256
        Issuer: C=CN, O=CMCA, CN=CMCA eSIM Root CA_NIST
        Validity
            Not Before: Dec  8 09:43:21 2022 GMT
            Not After : Dec  8 09:43:21 2027 GMT
        Subject: C=CN, O=Hengbao Corporation Limited, OU=Mobile Product Department, CN=China Mobile eSIM DPP
        Subject Public Key Info:
            Public Key Algorithm: id-ecPublicKey
                Public-Key: (256 bit)
                pub:
                    04:8f:da:74:ba:67:53:2b:47:97:e7:c2:c4:98:d4:
                    54:37:2c:f5:a7:15:16:fd:d5:75:a9:62:a2:26:62:
                    1f:2e:fa:33:40:d9:7b:9e:f5:ad:5e:81:09:fb:30:
                    8d:a3:0a:eb:a6:08:09:f7:46:ab:39:92:6b:c4:66:
                    43:e2:c2:ea:64
                ASN1 OID: prime256v1
                NIST CURVE: P-256
        X509v3 extensions:
            X509v3 Authority Key Identifier: 
                CD:F6:D1:C0:A7:B0:7F:98:A8:61:B6:E3:78:B8:2F:64:8D:99:66:3E
            X509v3 Subject Key Identifier: 
                79:BE:59:FA:2C:23:BC:DA:AC:7A:00:26:6C:17:1D:67:A9:8A:CF:1D
            X509v3 Key Usage: critical
                Digital Signature
            X509v3 Certificate Policies: critical
                Policy: 2.23.146.1.2.1.4
            X509v3 Subject Alternative Name: 
                Registered ID:1.3.6.1.4.1.54235.1.101.3.10.302
            X509v3 CRL Distribution Points: 
                Full Name:
                  URI:http://221.176.65.55:8081/crldownload/nA.crl
                Full Name:
                  URI:http://221.176.65.55:8081/crldownload/nB.crl
    Signature Algorithm: ecdsa-with-SHA256
    Signature Value:
        30:44:02:20:71:f0:34:fe:f0:f7:42:0c:51:65:b7:f0:34:63:
        04:8d:ba:40:66:22:92:25:7e:9c:8c:29:fa:f7:60:ad:f3:9f:
        02:20:4a:b3:34:61:18:79:d2:d6:14:fc:a0:ff:83:52:34:25:
        6d:7f:89:85:ac:d0:d0:12:d8:52:5b:c6:ec:4c:0c:9f
-----BEGIN CERTIFICATE-----
MIICnzCCAkagAwIBAgIDF9lKMAoGCCqGSM49BAMCMD0xCzAJBgNVBAYTAkNOMQ0w
CwYDVQQKDARDTUNBMR8wHQYDVQQDDBZDTUNBIGVTSU0gUm9vdCBDQV9OSVNUMB4X
DTIyMTIwODA5NDMyMVoXDTI3MTIwODA5NDMyMVowdzELMAkGA1UEBhMCQ04xJDAi
BgNVBAoMG0hlbmdiYW8gQ29ycG9yYXRpb24gTGltaXRlZDEiMCAGA1UECwwZTW9i
aWxlIFByb2R1Y3QgRGVwYXJ0bWVudDEeMBwGA1UEAwwVQ2hpbmEgTW9iaWxlIGVT
SU0gRFBQMFkwEwYHKoZIzj0CAQYIKoZIzj0DAQcDQgAEj9p0umdTK0eX58LEmNRU
Nyz1pxUW/dV1qWKiJmIfLvozQNl7nvWtXoEJ+zCNowrrpggJ90arOZJrxGZD4sLq
ZKOB+jCB9zAfBgNVHSMEGDAWgBTN9tHAp7B/mKhhtuN4uC9kjZlmPjAdBgNVHQ4E
FgQUeb5Z+iwjvNqsegAmbBcdZ6mKzx0wDgYDVR0PAQH/BAQDAgeAMBcGA1UdIAEB
/wQNMAswCQYHZ4ESAQIBBDAZBgNVHREEEjAQiA4rBgEEAYOnWwFlAwqCLjBxBgNV
HR8EajBoMDKgMKAuhixodHRwOi8vMjIxLjE3Ni42NS41NTo4MDgxL2NybGRvd25s
b2FkL25BLmNybDAyoDCgLoYsaHR0cDovLzIyMS4xNzYuNjUuNTU6ODA4MS9jcmxk
b3dubG9hZC9uQi5jcmwwCgYIKoZIzj0EAwIDRwAwRAIgcfA0/vD3QgxRZbfwNGME
jbpAZiKSJX6cjCn692Ct858CIEqzNGEYedLWFPyg/4NSNCVtf4mFrNDQEthSW8bs
TAyf
-----END CERTIFICATE-----
