Certificate:
    Data:
        Version: 3 (0x2)
        Serial Number:
            17:99:97:ab:05:38:9e:7e:35:fc:82:b0:75:fc:ec:5c
        Signature Algorithm: ecdsa-with-SHA256
        Issuer: O=GSM Association, CN=GSM Association - RSP2 Root CI1
        Validity
            Not Before: Feb 28 00:00:00 2023 GMT
            Not After : Feb 27 23:59:59 2026 GMT
        Subject: C=US, L=Virginia, O=Thales SA, CN=Google SMDS UE4
        Subject Public Key Info:
            Public Key Algorithm: id-ecPublicKey
                Public-Key: (256 bit)
                pub:
                    04:e1:3b:3d:1a:57:b3:4a:ad:6d:a7:d1:48:19:97:
                    18:69:cd:ee:32:4c:65:e5:0e:48:87:a1:a1:1b:35:
                    30:ef:9c:af:d7:5a:24:0c:87:42:c3:b1:48:3c:d4:
                    a0:2e:8f:6e:99:84:59:9d:00:95:a2:3d:a2:b3:d5:
                    81:dc:7e:1f:84
                ASN1 OID: prime256v1
                NIST CURVE: P-256
        X509v3 extensions:
            X509v3 Certificate Policies: critical
                Policy: 2.23.146.1.2.1.7
            X509v3 CRL Distribution Points: 
                Full Name:
                  URI:http://gsma-crl.symauth.com/offlineca/gsma-rsp2-root-ci1.crl
            X509v3 Key Usage: critical
                Digital Signature
            X509v3 Subject Alternative Name: 
                Registered ID:1.3.6.1.4.1.31746.1.220.300.110
            X509v3 Subject Key Identifier: 
                D5:12:A4:97:9B:30:82:CA:F9:A3:E6:EC:81:63:92:F6:CE:85:A3:6D
            X509v3 Authority Key Identifier: 
                81:37:0F:51:25:D0:B1:D4:08:D4:C3:B2:32:E6:D2:5E:79:5B:EB:FB
    Signature Algorithm: ecdsa-with-SHA256
    Signature Value:
        30:46:02:21:00:a6:51:ac:b4:9d:58:96:63:64:c6:cf:18:26:
        49:b6:6e:67:ca:2e:f9:70:32:7c:8b:40:26:75:dc:60:70:c1:
        28:02:21:00:fa:76:b1:17:98:a8:76:f9:56:b1:ad:b9:b7:e4:
        27:dd:59:ff:cc:08:06:b8:45:3a:a3:7e:32:3e:8a:13:71:2d
-----BEGIN CERTIFICATE-----
MIICaDCCAg2gAwIBAgIQF5mXqwU4nn41/IKwdfzsXDAKBggqhkjOPQQDAjBEMRgw
FgYDVQQKEw9HU00gQXNzb2NpYXRpb24xKDAmBgNVBAMTH0dTTSBBc3NvY2lhdGlv
biAtIFJTUDIgUm9vdCBDSTEwHhcNMjMwMjI4MDAwMDAwWhcNMjYwMjI3MjM1OTU5
WjBOMQswCQYDVQQGEwJVUzERMA8GA1UEBwwIVmlyZ2luaWExEjAQBgNVBAoMCVRo
YWxlcyBTQTEYMBYGA1UEAwwPR29vZ2xlIFNNRFMgVUU0MFkwEwYHKoZIzj0CAQYI
KoZIzj0DAQcDQgAE4Ts9GlezSq1tp9FIGZcYac3uMkxl5Q5Ih6GhGzUw75yv11ok
DIdCw7FIPNSgLo9umYRZnQCVoj2is9WB3H4fhKOB1jCB0zAXBgNVHSABAf8EDTAL
MAkGB2eBEgECAQcwTQYDVR0fBEYwRDBCoECgPoY8aHR0cDovL2dzbWEtY3JsLnN5
bWF1dGguY29tL29mZmxpbmVjYS9nc21hLXJzcDItcm9vdC1jaTEuY3JsMA4GA1Ud
DwEB/wQEAwIHgDAZBgNVHREEEjAQiA4rBgEEAYH4AgGBXIIsbjAdBgNVHQ4EFgQU
1RKkl5swgsr5o+bsgWOS9s6Fo20wHwYDVR0jBBgwFoAUgTcPUSXQsdQI1MOyMubS
Xnlb6/swCgYIKoZIzj0EAwIDSQAwRgIhAKZRrLSdWJZjZMbPGCZJtm5nyi75cDJ8
i0AmddxgcMEoAiEA+naxF5iodvlWsa25t+Qn3Vn/zAgGuEU6o34yPooTcS0=
-----END CERTIFICATE-----
