Certificate:
    Data:
        Version: 3 (0x2)
        Serial Number:
            39:5e:79:16:20:90:13:4e:e9:b1:dc:13:25:fd:4e:8e
        Signature Algorithm: ecdsa-with-SHA256
        Issuer:
            C = US
            O = Entrust, Inc.
            OU = See www.entrust.net/legal-terms
            OU = (c) 2016 Entrust, Inc. - for authorized use only
            CN = Entrust eSIM Certification Authority
        Validity
            Not Before: May 13 14:48:28 2024 GMT
            Not After : May 13 14:48:27 2026 GMT
        Subject:
            C = FR
            L = Courbevoie
            O = IDEMIA France
            CN = OT M-Connect DP
            emailAddress = andrei.mihailescu@idemia.com
        Subject Public Key Info:
            Public Key Algorithm: id-ecPublicKey
                Public-Key: (256 bit)
                pub:
                    04:e1:a0:89:e7:6a:8e:78:7e:11:64:9c:6c:db:ef:
                    9f:9e:82:40:a1:7f:a4:b3:41:56:6e:5c:e2:81:28:
                    2f:c7:ea:ed:0b:63:8a:49:88:b5:11:e5:fb:2e:d8:
                    3b:2b:3a:65:5a:bb:db:31:b7:ac:b9:02:ee:9d:08:
                    4c:41:47:ca:d8
                ASN1 OID: prime256v1
                NIST CURVE: P-256
        X509v3 extensions:
            X509v3 Basic Constraints: critical
                CA:FALSE
            X509v3 Subject Key Identifier: 
                49:6F:AE:14:24:7C:A0:53:E4:17:19:50:B9:90:B8:27:0A:3E:6C:3E
            X509v3 Authority Key Identifier: 
                16:70:4B:7F:35:1E:36:07:F1:8C:4B:70:00:5C:3A:00:3D:FD:41:4A
            X509v3 CRL Distribution Points: 
                Full Name:
                  URI:http://crl.entrust.net/entesimca.crl
            X509v3 Subject Alternative Name: 
                Registered ID:1.3.6.1.4.1.30703.836685.503.402.101
            X509v3 Key Usage: critical
                Digital Signature
            X509v3 Certificate Policies: critical
                Policy: 2.23.146.1.2.1.4
    Signature Algorithm: ecdsa-with-SHA256
    Signature Value:
        30:45:02:21:00:8b:e5:8c:09:0f:98:79:4d:7d:30:35:3e:94:
        8c:40:46:7c:0b:ce:e4:27:d7:ce:75:e9:f7:79:5b:1e:d7:e0:
        1d:02:20:09:86:e5:70:50:f1:a8:c3:27:5b:14:a9:1d:e7:a9:
        fc:86:53:fa:13:5f:55:fb:66:01:b9:78:50:f6:3d:ff:48
-----BEGIN CERTIFICATE-----
MIIDCTCCAq+gAwIBAgIQOV55FiCQE07psdwTJf1OjjAKBggqhkjOPQQDAjCBuTEL
MAkGA1UEBhMCVVMxFjAUBgNVBAoTDUVudHJ1c3QsIEluYy4xKDAmBgNVBAsTH1Nl
ZSB3d3cuZW50cnVzdC5uZXQvbGVnYWwtdGVybXMxOTA3BgNVBAsTMChjKSAyMDE2
IEVudHJ1c3QsIEluYy4gLSBmb3IgYXV0aG9yaXplZCB1c2Ugb25seTEtMCsGA1UE
AxMkRW50cnVzdCBlU0lNIENlcnRpZmljYXRpb24gQXV0aG9yaXR5MB4XDTI0MDUx
MzE0NDgyOFoXDTI2MDUxMzE0NDgyN1owgYExCzAJBgNVBAYTAkZSMRMwEQYDVQQH
EwpDb3VyYmV2b2llMRYwFAYDVQQKEw1JREVNSUEgRnJhbmNlMRgwFgYDVQQDEw9P
VCBNLUNvbm5lY3QgRFAxKzApBgkqhkiG9w0BCQEWHGFuZHJlaS5taWhhaWxlc2N1
QGlkZW1pYS5jb20wWTATBgcqhkjOPQIBBggqhkjOPQMBBwNCAAThoInnao54fhFk
nGzb75+egkChf6SzQVZuXOKBKC/H6u0LY4pJiLUR5fsu2DsrOmVau9sxt6y5Au6d
CExBR8rYo4HOMIHLMAwGA1UdEwEB/wQCMAAwHQYDVR0OBBYEFElvrhQkfKBT5BcZ
ULmQuCcKPmw+MB8GA1UdIwQYMBaAFBZwS381HjYH8YxLcABcOgA9/UFKMDUGA1Ud
HwQuMCwwKqAooCaGJGh0dHA6Ly9jcmwuZW50cnVzdC5uZXQvZW50ZXNpbWNhLmNy
bDAbBgNVHREEFDASiBArBgEEAYHvb7OITYN3gxJlMA4GA1UdDwEB/wQEAwIHgDAX
BgNVHSABAf8EDTALMAkGB2eBEgECAQQwCgYIKoZIzj0EAwIDSAAwRQIhAIvljAkP
mHlNfTA1PpSMQEZ8C87kJ9fOden3eVse1+AdAiAJhuVwUPGowydbFKkd56n8hlP6
E19V+2YBuXhQ9j3/SA==
-----END CERTIFICATE-----
