Certificate:
    Data:
        Version: 3 (0x2)
        Serial Number:
            69:34:ed:c9:35:eb:b6:32:b5:e7:64:37:f8:6d:a9:e5
        Signature Algorithm: ecdsa-with-SHA256
        Issuer: O=GSM Association, CN=GSM Association - RSP2 Root CI1
        Validity
            Not Before: Dec  8 00:00:00 2021 GMT
            Not After : Dec  7 23:59:59 2031 GMT
        Subject: C=US, L=Sterling, O=IDEMIA, CN=Azure SM-DP 402
        Subject Public Key Info:
            Public Key Algorithm: id-ecPublicKey
                Public-Key: (256 bit)
                pub:
                    04:d0:8f:c8:8e:d6:17:e4:98:7e:78:f6:95:a7:ed:
                    ab:64:02:24:b7:d8:72:3f:7b:59:5f:84:18:32:0f:
                    91:6a:4f:8f:53:c9:48:20:bf:6d:ee:a8:91:cb:99:
                    f4:80:7d:33:d9:8e:5c:de:e3:15:ee:f5:fc:25:d9:
                    77:c9:17:4e:59
                ASN1 OID: prime256v1
                NIST CURVE: P-256
        X509v3 extensions:
            X509v3 Certificate Policies: critical
                Policy: 2.23.146.1.2.1.4
            X509v3 CRL Distribution Points: 
                Full Name:
                  URI:http://gsma-crl.symauth.com/offlineca/gsma-rsp2-root-ci1.crl
            X509v3 Key Usage: critical
                Digital Signature
            X509v3 Subject Alternative Name: 
                Registered ID:1.3.6.1.4.1.30703.836685.503.402.101
            X509v3 Subject Key Identifier: 
                10:03:20:B0:9B:92:78:8E:32:E0:62:A1:BA:28:9E:5A:E5:E1:7B:51
            X509v3 Authority Key Identifier: 
                81:37:0F:51:25:D0:B1:D4:08:D4:C3:B2:32:E6:D2:5E:79:5B:EB:FB
    Signature Algorithm: ecdsa-with-SHA256
    Signature Value:
        30:44:02:20:14:d0:0a:c3:40:ef:a1:92:44:5c:75:83:f7:c5:
        33:18:f1:61:f5:e6:ec:6d:92:31:a2:3a:ed:0b:c9:4d:01:72:
        02:20:76:ea:43:83:ae:9c:c8:f4:07:b7:4b:13:63:7a:64:89:
        ab:ae:72:e3:ac:cf:d4:35:47:a6:4b:0e:bd:ea:cb:09
-----BEGIN CERTIFICATE-----
MIICZTCCAgygAwIBAgIQaTTtyTXrtjK152Q3+G2p5TAKBggqhkjOPQQDAjBEMRgw
FgYDVQQKEw9HU00gQXNzb2NpYXRpb24xKDAmBgNVBAMTH0dTTSBBc3NvY2lhdGlv
biAtIFJTUDIgUm9vdCBDSTEwHhcNMjExMjA4MDAwMDAwWhcNMzExMjA3MjM1OTU5
WjBLMQswCQYDVQQGEwJVUzERMA8GA1UEBwwIU3RlcmxpbmcxDzANBgNVBAoMBklE
RU1JQTEYMBYGA1UEAwwPQXp1cmUgU00tRFAgNDAyMFkwEwYHKoZIzj0CAQYIKoZI
zj0DAQcDQgAE0I/IjtYX5Jh+ePaVp+2rZAIkt9hyP3tZX4QYMg+Rak+PU8lIIL9t
7qiRy5n0gH0z2Y5c3uMV7vX8Jdl3yRdOWaOB2DCB1TAXBgNVHSABAf8EDTALMAkG
B2eBEgECAQQwTQYDVR0fBEYwRDBCoECgPoY8aHR0cDovL2dzbWEtY3JsLnN5bWF1
dGguY29tL29mZmxpbmVjYS9nc21hLXJzcDItcm9vdC1jaTEuY3JsMA4GA1UdDwEB
/wQEAwIHgDAbBgNVHREEFDASiBArBgEEAYHvb7OITYN3gxJlMB0GA1UdDgQWBBQQ
AyCwm5J4jjLgYqG6KJ5a5eF7UTAfBgNVHSMEGDAWgBSBNw9RJdCx1AjUw7Iy5tJe
eVvr+zAKBggqhkjOPQQDAgNHADBEAiAU0ArDQO+hkkRcdYP3xTMY8WH15uxtkjGi
Ou0LyU0BcgIgdupDg66cyPQHt0sTY3pkiauucuOsz9Q1R6ZLDr3qywk=
-----END CERTIFICATE-----
