Certificate:
    Data:
        Version: 3 (0x2)
        Serial Number:
            6e:c2:6c:d7:f2:1e:3c:7a:2d:84:93:ff:d8:54:c6:5f
        Signature Algorithm: ecdsa-with-SHA256
        Issuer: C=US, O=Entrust, Inc., OU=See www.entrust.net/legal-terms, OU=(c) 2016 Entrust, Inc. - for authorized use only, CN=Entrust eSIM Certification Authority
        Validity
            Not Before: Jan 17 19:35:40 2024 GMT
            Not After : Jan 17 19:35:39 2026 GMT
        Subject: C=FR, ST=Île-de-France, L=Courbevoie, O=THALES, CN=GCP EW3 PROD SMDPP AUTH ENTRUST, emailAddress=DL.DES.SRE.GCP@thalesgroup.com
        Subject Public Key Info:
            Public Key Algorithm: id-ecPublicKey
                Public-Key: (256 bit)
                pub:
                    04:10:9d:83:84:15:46:24:21:d0:36:85:3b:01:0a:
                    2a:d3:eb:c7:52:c5:f4:99:79:cc:b6:d2:cd:e1:36:
                    ab:99:6d:d8:4c:78:6b:00:e0:5d:0d:22:61:93:3c:
                    40:63:cd:26:7d:c7:0e:12:63:86:c3:49:e1:82:ee:
                    c6:78:b9:a4:6c
                ASN1 OID: prime256v1
                NIST CURVE: P-256
        X509v3 extensions:
            X509v3 Basic Constraints: critical
                CA:FALSE
            X509v3 Subject Key Identifier: 
                7D:76:05:E1:C6:D4:73:92:7D:A1:21:AF:85:4B:48:49:9C:04:F6:E9
            X509v3 Authority Key Identifier: 
                16:70:4B:7F:35:1E:36:07:F1:8C:4B:70:00:5C:3A:00:3D:FD:41:4A
            X509v3 CRL Distribution Points: 
                Full Name:
                  URI:http://crl.entrust.net/entesimca.crl
            X509v3 Subject Alternative Name: 
                Registered ID:1.3.6.1.4.1.31746.1.220.100.101.2
            X509v3 Key Usage: critical
                Digital Signature
            X509v3 Certificate Policies: critical
                Policy: 2.23.146.1.2.1.4
    Signature Algorithm: ecdsa-with-SHA256
    Signature Value:
        30:46:02:21:00:c5:6a:a9:50:4b:da:ef:87:fd:ec:f8:30:c9:
        95:b5:06:93:35:34:79:e8:cb:80:90:13:a6:0f:03:2f:58:73:
        6d:02:21:00:fc:43:61:01:37:84:68:a5:db:e9:f6:2f:92:29:
        e9:53:29:53:39:10:92:11:52:40:14:02:95:32:5c:5d:ab:1d
-----BEGIN CERTIFICATE-----
MIIDLDCCAtGgAwIBAgIQbsJs1/IePHothJP/2FTGXzAKBggqhkjOPQQDAjCBuTEL
MAkGA1UEBhMCVVMxFjAUBgNVBAoTDUVudHJ1c3QsIEluYy4xKDAmBgNVBAsTH1Nl
ZSB3d3cuZW50cnVzdC5uZXQvbGVnYWwtdGVybXMxOTA3BgNVBAsTMChjKSAyMDE2
IEVudHJ1c3QsIEluYy4gLSBmb3IgYXV0aG9yaXplZCB1c2Ugb25seTEtMCsGA1UE
AxMkRW50cnVzdCBlU0lNIENlcnRpZmljYXRpb24gQXV0aG9yaXR5MB4XDTI0MDEx
NzE5MzU0MFoXDTI2MDExNzE5MzUzOVowgaUxCzAJBgNVBAYTAkZSMRcwFQYDVQQI
DA7DjmxlLWRlLUZyYW5jZTETMBEGA1UEBxMKQ291cmJldm9pZTEPMA0GA1UEChMG
VEhBTEVTMSgwJgYDVQQDEx9HQ1AgRVczIFBST0QgU01EUFAgQVVUSCBFTlRSVVNU
MS0wKwYJKoZIhvcNAQkBFh5ETC5ERVMuU1JFLkdDUEB0aGFsZXNncm91cC5jb20w
WTATBgcqhkjOPQIBBggqhkjOPQMBBwNCAAQQnYOEFUYkIdA2hTsBCirT68dSxfSZ
ecy20s3hNquZbdhMeGsA4F0NImGTPEBjzSZ9xw4SY4bDSeGC7sZ4uaRso4HMMIHJ
MAwGA1UdEwEB/wQCMAAwHQYDVR0OBBYEFH12BeHG1HOSfaEhr4VLSEmcBPbpMB8G
A1UdIwQYMBaAFBZwS381HjYH8YxLcABcOgA9/UFKMDUGA1UdHwQuMCwwKqAooCaG
JGh0dHA6Ly9jcmwuZW50cnVzdC5uZXQvZW50ZXNpbWNhLmNybDAZBgNVHREEEjAQ
iA4rBgEEAYH4AgGBXGRlAjAOBgNVHQ8BAf8EBAMCB4AwFwYDVR0gAQH/BA0wCzAJ
BgdngRIBAgEEMAoGCCqGSM49BAMCA0kAMEYCIQDFaqlQS9rvh/3s+DDJlbUGkzU0
eejLgJATpg8DL1hzbQIhAPxDYQE3hGil2+n2L5Ip6VMpUzkQkhFSQBQClTJcXasd
-----END CERTIFICATE-----
