Certificate:
    Data:
        Version: 3 (0x2)
        Serial Number:
            0e:f8:50:9d:5d:dd:2d:5b:96:7d:08:85:8f:6b:00:49
        Signature Algorithm: ecdsa-with-SHA256
        Issuer: O=GSM Association, CN=GSM Association - RSP2 Root CI1
        Validity
            Not Before: Jun 16 00:00:00 2022 GMT
            Not After : Jun 15 23:59:59 2025 GMT
        Subject: C=US, L=Virginia, O=THALES SA, OU=ODC US, CN=SMDP+ VZW GCP UE 04
        Subject Public Key Info:
            Public Key Algorithm: id-ecPublicKey
                Public-Key: (256 bit)
                pub:
                    04:a1:ad:c7:28:26:45:b7:33:21:42:27:6e:5d:b9:
                    26:56:4a:96:2f:0d:32:02:cb:c9:c7:fc:6d:e4:b1:
                    51:79:81:d6:ac:a5:6b:73:e8:bb:bc:b3:34:37:56:
                    49:34:ca:2e:83:7b:e6:b7:b7:08:c7:64:8a:b1:f3:
                    c3:ca:74:05:41
                ASN1 OID: prime256v1
                NIST CURVE: P-256
        X509v3 extensions:
            X509v3 Subject Key Identifier: 
                20:CA:ED:60:09:DB:A2:B1:AB:E7:85:72:92:89:AF:13:D6:FD:43:BF
            X509v3 Certificate Policies: critical
                Policy: 2.23.146.1.2.1.4
            X509v3 CRL Distribution Points: 
                Full Name:
                  URI:http://gsma-crl.symauth.com/offlineca/gsma-rsp2-root-ci1.crl
            X509v3 Key Usage: critical
                Digital Signature
            X509v3 Subject Alternative Name: 
                Registered ID:1.3.6.1.4.1.31746.1.220.100.101.1
            X509v3 Authority Key Identifier: 
                81:37:0F:51:25:D0:B1:D4:08:D4:C3:B2:32:E6:D2:5E:79:5B:EB:FB
    Signature Algorithm: ecdsa-with-SHA256
    Signature Value:
        30:45:02:20:57:85:86:a6:0e:fe:b1:77:54:26:96:3d:a5:b5:
        04:51:4d:4b:85:1a:93:32:14:db:47:d4:68:7f:f9:15:2b:e5:
        02:21:00:86:6a:e9:05:57:c4:98:e8:63:3a:e1:41:9d:76:cb:
        4b:a1:54:27:3b:b1:f3:69:3d:f5:9f:2f:89:01:82:28:52
-----BEGIN CERTIFICATE-----
MIICfDCCAiKgAwIBAgIQDvhQnV3dLVuWfQiFj2sASTAKBggqhkjOPQQDAjBEMRgw
FgYDVQQKEw9HU00gQXNzb2NpYXRpb24xKDAmBgNVBAMTH0dTTSBBc3NvY2lhdGlv
biAtIFJTUDIgUm9vdCBDSTEwHhcNMjIwNjE2MDAwMDAwWhcNMjUwNjE1MjM1OTU5
WjBjMQswCQYDVQQGEwJVUzERMA8GA1UEBwwIVmlyZ2luaWExEjAQBgNVBAoMCVRI
QUxFUyBTQTEPMA0GA1UECwwGT0RDIFVTMRwwGgYDVQQDDBNTTURQKyBWWlcgR0NQ
IFVFIDA0MFkwEwYHKoZIzj0CAQYIKoZIzj0DAQcDQgAEoa3HKCZFtzMhQiduXbkm
VkqWLw0yAsvJx/xt5LFReYHWrKVrc+i7vLM0N1ZJNMoug3vmt7cIx2SKsfPDynQF
QaOB1jCB0zAdBgNVHQ4EFgQUIMrtYAnborGr54VykomvE9b9Q78wFwYDVR0gAQH/
BA0wCzAJBgdngRIBAgEEME0GA1UdHwRGMEQwQqBAoD6GPGh0dHA6Ly9nc21hLWNy
bC5zeW1hdXRoLmNvbS9vZmZsaW5lY2EvZ3NtYS1yc3AyLXJvb3QtY2kxLmNybDAO
BgNVHQ8BAf8EBAMCB4AwGQYDVR0RBBIwEIgOKwYBBAGB+AIBgVxkZQEwHwYDVR0j
BBgwFoAUgTcPUSXQsdQI1MOyMubSXnlb6/swCgYIKoZIzj0EAwIDSAAwRQIgV4WG
pg7+sXdUJpY9pbUEUU1LhRqTMhTbR9Rof/kVK+UCIQCGaukFV8SY6GM64UGddstL
oVQnO7HzaT31ny+JAYIoUg==
-----END CERTIFICATE-----
