Certificate:
    Data:
        Version: 3 (0x2)
        Serial Number:
            66:e9:81:94:d7:9b:1b:bc:07:97:fe:55:ae:73:c2:c4
        Signature Algorithm: ecdsa-with-SHA256
        Issuer:
            O = GSM Association
            CN = GSM Association - RSP2 Root CI1
        Validity
            Not Before: Sep 18 00:00:00 2024 GMT
            Not After : Sep 17 23:59:59 2027 GMT
        Subject:
            O = REDTEA MOBILE PTE. LTD.
            CN = REDTEA MOBILE DP_AUTH
        Subject Public Key Info:
            Public Key Algorithm: id-ecPublicKey
                Public-Key: (256 bit)
                pub:
                    04:27:52:41:7b:e1:04:b3:2a:1c:01:0f:6f:63:38:
                    c2:06:db:4c:90:67:2e:7c:6b:0b:89:42:c3:90:81:
                    dc:6c:62:a2:48:11:d1:91:92:0f:08:8f:12:fd:18:
                    70:eb:20:75:04:35:b4:21:40:34:15:8e:1e:45:57:
                    6c:a9:2d:ad:36
                ASN1 OID: prime256v1
                NIST CURVE: P-256
        X509v3 extensions:
            X509v3 Certificate Policies: critical
                Policy: 2.23.146.1.2.1.4
            X509v3 CRL Distribution Points: 
                Full Name:
                  URI:http://gsma-crl.symauth.com/offlineca/gsma-rsp2-root-ci1.crl
            X509v3 Key Usage: critical
                Digital Signature
            X509v3 Subject Alternative Name: 
                Registered ID:1.3.6.1.4.1.58012
            X509v3 Subject Key Identifier: 
                1F:72:0D:A1:1C:E2:06:9B:97:73:05:75:A0:DA:67:5C:67:95:B7:A2
            X509v3 Authority Key Identifier: 
                81:37:0F:51:25:D0:B1:D4:08:D4:C3:B2:32:E6:D2:5E:79:5B:EB:FB
    Signature Algorithm: ecdsa-with-SHA256
    Signature Value:
        30:44:02:20:6e:ae:9d:52:9f:4c:d0:b4:93:01:54:e0:9a:23:
        e2:c6:f9:ff:96:f7:08:a0:c9:dc:ee:22:75:dc:32:e6:67:8a:
        02:20:72:1d:93:a6:63:b4:25:5f:6a:17:a4:e6:1f:32:43:45:
        9d:67:ae:3a:84:f4:5d:e4:cd:d2:a5:17:93:64:d5:89
-----BEGIN CERTIFICATE-----
MIICVDCCAfugAwIBAgIQZumBlNebG7wHl/5VrnPCxDAKBggqhkjOPQQDAjBEMRgw
FgYDVQQKEw9HU00gQXNzb2NpYXRpb24xKDAmBgNVBAMTH0dTTSBBc3NvY2lhdGlv
biAtIFJTUDIgUm9vdCBDSTEwHhcNMjQwOTE4MDAwMDAwWhcNMjcwOTE3MjM1OTU5
WjBCMSAwHgYDVQQKDBdSRURURUEgTU9CSUxFIFBURS4gTFRELjEeMBwGA1UEAwwV
UkVEVEVBIE1PQklMRSBEUF9BVVRIMFkwEwYHKoZIzj0CAQYIKoZIzj0DAQcDQgAE
J1JBe+EEsyocAQ9vYzjCBttMkGcufGsLiULDkIHcbGKiSBHRkZIPCI8S/Rhw6yB1
BDW0IUA0FY4eRVdsqS2tNqOB0DCBzTAXBgNVHSABAf8EDTALMAkGB2eBEgECAQQw
TQYDVR0fBEYwRDBCoECgPoY8aHR0cDovL2dzbWEtY3JsLnN5bWF1dGguY29tL29m
ZmxpbmVjYS9nc21hLXJzcDItcm9vdC1jaTEuY3JsMA4GA1UdDwEB/wQEAwIHgDAT
BgNVHREEDDAKiAgrBgEEAYPFHDAdBgNVHQ4EFgQUH3INoRziBpuXcwV1oNpnXGeV
t6IwHwYDVR0jBBgwFoAUgTcPUSXQsdQI1MOyMubSXnlb6/swCgYIKoZIzj0EAwID
RwAwRAIgbq6dUp9M0LSTAVTgmiPixvn/lvcIoMnc7iJ13DLmZ4oCIHIdk6ZjtCVf
ahek5h8yQ0WdZ646hPRd5M3SpReTZNWJ
-----END CERTIFICATE-----
