Certificate:
    Data:
        Version: 3 (0x2)
        Serial Number:
            39:69:af:b2:74:96:3b:c8:e1:4e:8e:f1:7c:7f:7a:ee
        Signature Algorithm: ecdsa-with-SHA256
        Issuer: C=US, O=Entrust, Inc., OU=See www.entrust.net/legal-terms, OU=(c) 2016 Entrust, Inc. - for authorized use only, CN=Entrust eSIM Certification Authority
        Validity
            Not Before: Jan 29 21:34:48 2024 GMT
            Not After : Jan 29 21:34:47 2026 GMT
        Subject: C=FR, ST=Île-de-France, L=Courbevoie, O=THALES, CN=MTNT PRODUCTION DP AUTH ENTRUST, emailAddress=vaebhav.vaebhav@thalesgroup.com
        Subject Public Key Info:
            Public Key Algorithm: id-ecPublicKey
                Public-Key: (256 bit)
                pub:
                    04:37:37:93:84:93:88:6f:96:bc:48:55:3f:5d:4f:
                    f2:bf:7f:3f:8b:38:72:ce:ba:2c:ad:db:09:23:ef:
                    3b:94:72:88:15:b3:69:85:11:26:58:5e:b0:43:8f:
                    e8:5c:cf:f6:c9:b6:39:d8:06:fc:37:c4:40:e3:18:
                    87:47:f8:b5:4c
                ASN1 OID: prime256v1
                NIST CURVE: P-256
        X509v3 extensions:
            X509v3 Basic Constraints: critical
                CA:FALSE
            X509v3 Subject Key Identifier: 
                09:53:65:1A:54:C6:B5:90:E3:DC:26:F7:34:6C:BE:9E:7A:58:0D:C8
            X509v3 Authority Key Identifier: 
                16:70:4B:7F:35:1E:36:07:F1:8C:4B:70:00:5C:3A:00:3D:FD:41:4A
            X509v3 CRL Distribution Points: 
                Full Name:
                  URI:http://crl.entrust.net/entesimca.crl
            X509v3 Subject Alternative Name: 
                Registered ID:1.3.6.1.4.1.31746.1.220.100.101.2
            X509v3 Key Usage: critical
                Digital Signature
            X509v3 Certificate Policies: critical
                Policy: 2.23.146.1.2.1.4
    Signature Algorithm: ecdsa-with-SHA256
    Signature Value:
        30:46:02:21:00:b4:a4:6a:b2:f8:b8:a7:90:65:c1:15:b1:4f:
        7c:c8:88:bd:a6:6c:0c:2d:bf:47:68:24:d6:63:62:0b:63:07:
        a5:02:21:00:eb:11:c1:8b:0c:fb:9a:70:23:8e:a4:c2:7e:e9:
        bc:eb:b3:d0:ed:c8:75:80:76:2b:86:73:09:11:f5:e6:8b:9d
-----BEGIN CERTIFICATE-----
MIIDLTCCAtKgAwIBAgIQOWmvsnSWO8jhTo7xfH967jAKBggqhkjOPQQDAjCBuTEL
MAkGA1UEBhMCVVMxFjAUBgNVBAoTDUVudHJ1c3QsIEluYy4xKDAmBgNVBAsTH1Nl
ZSB3d3cuZW50cnVzdC5uZXQvbGVnYWwtdGVybXMxOTA3BgNVBAsTMChjKSAyMDE2
IEVudHJ1c3QsIEluYy4gLSBmb3IgYXV0aG9yaXplZCB1c2Ugb25seTEtMCsGA1UE
AxMkRW50cnVzdCBlU0lNIENlcnRpZmljYXRpb24gQXV0aG9yaXR5MB4XDTI0MDEy
OTIxMzQ0OFoXDTI2MDEyOTIxMzQ0N1owgaYxCzAJBgNVBAYTAkZSMRcwFQYDVQQI
DA7DjmxlLWRlLUZyYW5jZTETMBEGA1UEBxMKQ291cmJldm9pZTEPMA0GA1UEChMG
VEhBTEVTMSgwJgYDVQQDEx9NVE5UIFBST0RVQ1RJT04gRFAgQVVUSCBFTlRSVVNU
MS4wLAYJKoZIhvcNAQkBFh92YWViaGF2LnZhZWJoYXZAdGhhbGVzZ3JvdXAuY29t
MFkwEwYHKoZIzj0CAQYIKoZIzj0DAQcDQgAENzeThJOIb5a8SFU/XU/yv38/izhy
zrosrdsJI+87lHKIFbNphREmWF6wQ4/oXM/2ybY52Ab8N8RA4xiHR/i1TKOBzDCB
yTAMBgNVHRMBAf8EAjAAMB0GA1UdDgQWBBQJU2UaVMa1kOPcJvc0bL6eelgNyDAf
BgNVHSMEGDAWgBQWcEt/NR42B/GMS3AAXDoAPf1BSjA1BgNVHR8ELjAsMCqgKKAm
hiRodHRwOi8vY3JsLmVudHJ1c3QubmV0L2VudGVzaW1jYS5jcmwwGQYDVR0RBBIw
EIgOKwYBBAGB+AIBgVxkZQIwDgYDVR0PAQH/BAQDAgeAMBcGA1UdIAEB/wQNMAsw
CQYHZ4ESAQIBBDAKBggqhkjOPQQDAgNJADBGAiEAtKRqsvi4p5BlwRWxT3zIiL2m
bAwtv0doJNZjYgtjB6UCIQDrEcGLDPuacCOOpMJ+6bzrs9DtyHWAdiuGcwkR9eaL
nQ==
-----END CERTIFICATE-----
