Certificate:
    Data:
        Version: 3 (0x2)
        Serial Number:
            0b:ed:37:66:2f:4b:d8:5f:ea:8d:67:0e:89:18:e5:07
        Signature Algorithm: ecdsa-with-SHA256
        Issuer: O=GSM Association, CN=GSM Association - RSP2 Root CI1
        Validity
            Not Before: May 13 00:00:00 2021 GMT
            Not After : May 12 23:59:59 2024 GMT
        Subject: C=US, O=Gemalto Inc, CN=MTNT PRODUCTION DP GSMA
        Subject Public Key Info:
            Public Key Algorithm: id-ecPublicKey
                Public-Key: (256 bit)
                pub:
                    04:fa:19:51:4b:55:94:54:53:d4:45:ed:e5:4f:71:
                    be:78:d6:57:ba:70:9d:56:4d:cd:5e:56:ca:36:09:
                    61:f6:71:57:5c:01:77:17:35:33:fd:81:d3:73:f2:
                    94:37:62:96:f6:71:0a:01:1e:63:7d:ec:ca:23:c6:
                    a5:8b:27:7e:4e
                ASN1 OID: prime256v1
                NIST CURVE: P-256
        X509v3 extensions:
            X509v3 Certificate Policies: critical
                Policy: 2.23.146.1.2.1.4
            X509v3 CRL Distribution Points: 
                Full Name:
                  URI:http://gsma-crl.symauth.com/offlineca/gsma-rsp2-root-ci1.crl
            X509v3 Key Usage: critical
                Digital Signature
            X509v3 Subject Key Identifier: 
                91:4F:B8:50:EF:17:62:07:C2:1C:44:0D:8C:4D:50:8B:8E:8A:40:F9
            X509v3 Subject Alternative Name: 
                Registered ID:1.3.6.1.4.1.31746.1.220.100.101.2
            X509v3 Authority Key Identifier: 
                81:37:0F:51:25:D0:B1:D4:08:D4:C3:B2:32:E6:D2:5E:79:5B:EB:FB
    Signature Algorithm: ecdsa-with-SHA256
    Signature Value:
        30:45:02:21:00:cf:8d:c4:94:5c:91:98:d1:bd:c0:e4:7a:fa:
        98:ed:99:ae:bc:1c:40:df:d5:8b:59:69:60:b9:f3:c3:57:2b:
        97:02:20:67:bc:6e:9a:66:61:68:9f:54:96:9e:2b:d6:65:fe:
        6f:e0:46:f3:05:40:bb:e8:ca:28:a1:c4:2d:88:e6:15:25
-----BEGIN CERTIFICATE-----
MIICXjCCAgSgAwIBAgIQC+03Zi9L2F/qjWcOiRjlBzAKBggqhkjOPQQDAjBEMRgw
FgYDVQQKEw9HU00gQXNzb2NpYXRpb24xKDAmBgNVBAMTH0dTTSBBc3NvY2lhdGlv
biAtIFJTUDIgUm9vdCBDSTEwHhcNMjEwNTEzMDAwMDAwWhcNMjQwNTEyMjM1OTU5
WjBFMQswCQYDVQQGEwJVUzEUMBIGA1UECgwLR2VtYWx0byBJbmMxIDAeBgNVBAMM
F01UTlQgUFJPRFVDVElPTiBEUCBHU01BMFkwEwYHKoZIzj0CAQYIKoZIzj0DAQcD
QgAE+hlRS1WUVFPURe3lT3G+eNZXunCdVk3NXlbKNglh9nFXXAF3FzUz/YHTc/KU
N2KW9nEKAR5jfezKI8aliyd+TqOB1jCB0zAXBgNVHSABAf8EDTALMAkGB2eBEgEC
AQQwTQYDVR0fBEYwRDBCoECgPoY8aHR0cDovL2dzbWEtY3JsLnN5bWF1dGguY29t
L29mZmxpbmVjYS9nc21hLXJzcDItcm9vdC1jaTEuY3JsMA4GA1UdDwEB/wQEAwIH
gDAdBgNVHQ4EFgQUkU+4UO8XYgfCHEQNjE1Qi46KQPkwGQYDVR0RBBIwEIgOKwYB
BAGB+AIBgVxkZQIwHwYDVR0jBBgwFoAUgTcPUSXQsdQI1MOyMubSXnlb6/swCgYI
KoZIzj0EAwIDSAAwRQIhAM+NxJRckZjRvcDkevqY7ZmuvBxA39WLWWlgufPDVyuX
AiBnvG6aZmFon1SWnivWZf5v4EbzBUC76MooocQtiOYVJQ==
-----END CERTIFICATE-----
