Certificate:
    Data:
        Version: 3 (0x2)
        Serial Number:
            1a:f2:da:fe:15:23:47:c3:66:74:a2:81:1d:da:15:d6
        Signature Algorithm: ecdsa-with-SHA256
        Issuer:
            O = GSM Association
            CN = GSM Association - RSP2 Root CI1
        Validity
            Not Before: Dec 14 00:00:00 2022 GMT
            Not After : Dec 13 23:59:59 2025 GMT
        Subject:
            C = US
            ST = Texas
            L = Austin
            O = Nokia Solutions and Networks Oy
            OU = CNS SaaS
            CN = iSIM Secure Connect SM-DP+
        Subject Public Key Info:
            Public Key Algorithm: id-ecPublicKey
                Public-Key: (256 bit)
                pub:
                    04:b2:e5:c0:27:18:cc:66:25:ad:7c:35:da:19:11:
                    23:a7:88:e0:5f:a6:6f:66:7b:51:4c:a8:f6:aa:6c:
                    94:25:89:6e:5c:15:9f:00:96:2b:a8:78:0a:c7:bc:
                    76:9c:8a:8a:68:85:fa:3d:20:95:de:90:5c:38:81:
                    3f:c4:41:56:53
                ASN1 OID: prime256v1
                NIST CURVE: P-256
        X509v3 extensions:
            X509v3 Subject Key Identifier: 
                18:AB:61:52:97:E6:05:70:A5:1C:71:EA:2C:C7:9D:A5:5D:F8:F7:DD
            X509v3 Certificate Policies: critical
                Policy: 2.23.146.1.2.1.4
            X509v3 CRL Distribution Points: 
                Full Name:
                  URI:http://gsma-crl.symauth.com/offlineca/gsma-rsp2-root-ci1.crl
            X509v3 Key Usage: critical
                Digital Signature
            X509v3 Subject Alternative Name: 
                Registered ID:1.3.6.1.4.1.3729.125
            X509v3 Authority Key Identifier: 
                81:37:0F:51:25:D0:B1:D4:08:D4:C3:B2:32:E6:D2:5E:79:5B:EB:FB
    Signature Algorithm: ecdsa-with-SHA256
    Signature Value:
        30:46:02:21:00:b6:62:8e:b2:78:6b:aa:2c:e6:73:41:fc:5c:
        21:f0:96:bc:22:29:da:32:1f:5e:6a:af:4a:1a:48:52:de:9d:
        c2:02:21:00:b7:85:24:67:a9:d8:2f:60:03:5d:6d:ed:30:7d:
        f0:a8:15:96:e7:c9:31:3b:93:91:46:9a:55:52:f5:ee:52:af
-----BEGIN CERTIFICATE-----
MIICpTCCAkqgAwIBAgIQGvLa/hUjR8NmdKKBHdoV1jAKBggqhkjOPQQDAjBEMRgw
FgYDVQQKEw9HU00gQXNzb2NpYXRpb24xKDAmBgNVBAMTH0dTTSBBc3NvY2lhdGlv
biAtIFJTUDIgUm9vdCBDSTEwHhcNMjIxMjE0MDAwMDAwWhcNMjUxMjEzMjM1OTU5
WjCBkDELMAkGA1UEBhMCVVMxDjAMBgNVBAgMBVRleGFzMQ8wDQYDVQQHDAZBdXN0
aW4xKDAmBgNVBAoMH05va2lhIFNvbHV0aW9ucyBhbmQgTmV0d29ya3MgT3kxETAP
BgNVBAsMCENOUyBTYWFTMSMwIQYDVQQDDBppU0lNIFNlY3VyZSBDb25uZWN0IFNN
LURQKzBZMBMGByqGSM49AgEGCCqGSM49AwEHA0IABLLlwCcYzGYlrXw12hkRI6eI
4F+mb2Z7UUyo9qpslCWJblwVnwCWK6h4Cse8dpyKimiF+j0gld6QXDiBP8RBVlOj
gdAwgc0wHQYDVR0OBBYEFBirYVKX5gVwpRxx6izHnaVd+PfdMBcGA1UdIAEB/wQN
MAswCQYHZ4ESAQIBBDBNBgNVHR8ERjBEMEKgQKA+hjxodHRwOi8vZ3NtYS1jcmwu
c3ltYXV0aC5jb20vb2ZmbGluZWNhL2dzbWEtcnNwMi1yb290LWNpMS5jcmwwDgYD
VR0PAQH/BAQDAgeAMBMGA1UdEQQMMAqICCsGAQQBnRF9MB8GA1UdIwQYMBaAFIE3
D1El0LHUCNTDsjLm0l55W+v7MAoGCCqGSM49BAMCA0kAMEYCIQC2Yo6yeGuqLOZz
QfxcIfCWvCIp2jIfXmqvShpIUt6dwgIhALeFJGep2C9gA11t7TB98KgVlufJMTuT
kUaaVVL17lKv
-----END CERTIFICATE-----
