Certificate:
    Data:
        Version: 3 (0x2)
        Serial Number:
            e9:2b:19:83:fa:d7:1a:86:85:cd:b4:59:30:5b:96:f5:f7:fa:f5
        Signature Algorithm: ecdsa-with-SHA256
        Issuer: C=DE, OU=Mobile Security, O=Giesecke and Devrient GmbH, CN=SubMan V4.2 CI Google Pixel
        Validity
            Not Before: Jun  5 00:00:00 2020 GMT
            Not After : Jun  5 00:00:00 2023 GMT
        Subject: C=DE, OU=Mobile Security, O=Giesecke and Devrient GmbH, CN=SubMan V4.2 DP Google Pixel
        Subject Public Key Info:
            Public Key Algorithm: id-ecPublicKey
                Public-Key: (256 bit)
                pub:
                    04:ea:a0:73:db:b7:05:20:73:51:18:ea:0f:82:91:
                    8f:00:bf:df:74:c6:82:b0:a5:90:c2:19:6c:c0:06:
                    6f:ed:25:f9:4d:f3:d1:ee:76:29:00:c4:c0:1d:0b:
                    33:46:5d:e8:cb:1d:ad:76:b0:d9:96:d3:eb:0e:1e:
                    37:98:4a:29:58
                ASN1 OID: prime256v1
                NIST CURVE: P-256
        X509v3 extensions:
            X509v3 Authority Key Identifier: 
                B6:0F:0B:89:7F:D6:30:B8:8C:FE:D6:16:1F:8E:A8:08:C5:38:2A:C3
            X509v3 Subject Key Identifier: 
                44:11:7B:BD:F3:3D:04:6E:3D:CD:66:D2:B2:6F:29:79:D8:CE:E1:A5
            X509v3 Key Usage: critical
                Digital Signature
            X509v3 Certificate Policies: critical
                Policy: 2.23.146.1.2.1.4
            X509v3 Subject Alternative Name: 
                Registered ID:1.3.6.1.4.1.11791.104.2.29
    Signature Algorithm: ecdsa-with-SHA256
    Signature Value:
        30:45:02:21:00:ce:39:06:84:66:60:53:93:0b:aa:28:0f:ad:
        38:07:45:68:4f:41:23:9b:6f:03:40:85:6c:58:27:bc:c1:e4:
        84:02:20:16:0a:83:57:77:eb:38:3d:3d:3d:95:06:d5:5f:ae:
        6b:ce:84:4b:fa:5a:e7:af:03:6b:b8:63:00:51:88:46:95
-----BEGIN CERTIFICATE-----
MIICajCCAhCgAwIBAgIUAOkrGYP61xqGhc20WTBblvX3+vUwCgYIKoZIzj0EAwIw
cjELMAkGA1UEBhMCREUxGDAWBgNVBAsMD01vYmlsZSBTZWN1cml0eTEjMCEGA1UE
CgwaR2llc2Vja2UgYW5kIERldnJpZW50IEdtYkgxJDAiBgNVBAMMG1N1Yk1hbiBW
NC4yIENJIEdvb2dsZSBQaXhlbDAeFw0yMDA2MDUwMDAwMDBaFw0yMzA2MDUwMDAw
MDBaMHIxCzAJBgNVBAYTAkRFMRgwFgYDVQQLDA9Nb2JpbGUgU2VjdXJpdHkxIzAh
BgNVBAoMGkdpZXNlY2tlIGFuZCBEZXZyaWVudCBHbWJIMSQwIgYDVQQDDBtTdWJN
YW4gVjQuMiBEUCBHb29nbGUgUGl4ZWwwWTATBgcqhkjOPQIBBggqhkjOPQMBBwNC
AATqoHPbtwUgc1EY6g+CkY8Av990xoKwpZDCGWzABm/tJflN89HudikAxMAdCzNG
XejLHa12sNmW0+sOHjeYSilYo4GDMIGAMB8GA1UdIwQYMBaAFLYPC4l/1jC4jP7W
Fh+OqAjFOCrDMB0GA1UdDgQWBBREEXu98z0Ebj3NZtKybyl52M7hpTAOBgNVHQ8B
Af8EBAMCB4AwFwYDVR0gAQH/BA0wCzAJBgdngRIBAgEEMBUGA1UdEQQOMAyICisG
AQQB3A9oAh0wCgYIKoZIzj0EAwIDSAAwRQIhAM45BoRmYFOTC6ooD604B0VoT0Ej
m28DQIVsWCe8weSEAiAWCoNXd+s4PT09lQbVX65rzoRL+lrnrwNruGMAUYhGlQ==
-----END CERTIFICATE-----
