Certificate:
    Data:
        Version: 3 (0x2)
        Serial Number:
            62:8d:ff:e6:78:c2:eb:ef:4f:87:1e:3c:0e:59:d7:85
        Signature Algorithm: ecdsa-with-SHA256
        Issuer: O=GSM Association, CN=GSM Association - RSP2 Root CI1
        Validity
            Not Before: Feb 24 00:00:00 2021 GMT
            Not After : Feb 23 23:59:59 2024 GMT
        Subject: C=RU, L=Nizhny Novgorod, O=NovaCard JSC, CN=rsp.novacard.ru
        Subject Public Key Info:
            Public Key Algorithm: id-ecPublicKey
                Public-Key: (256 bit)
                pub:
                    04:df:03:aa:fb:13:02:18:cc:b2:cd:18:62:54:b0:
                    70:6c:ea:bb:16:c4:10:a9:c7:ee:6e:cd:94:c6:80:
                    f5:cf:00:df:8c:03:84:71:1a:a9:8c:20:fa:05:c7:
                    be:a4:e8:94:77:91:13:ec:1a:28:6e:c1:4e:cd:e1:
                    d8:d0:1b:73:e6
                ASN1 OID: prime256v1
                NIST CURVE: P-256
        X509v3 extensions:
            X509v3 Subject Key Identifier: 
                4A:9E:91:23:2A:90:3E:A2:BC:4D:54:FE:32:A9:56:8A:70:09:A9:34
            X509v3 Certificate Policies: critical
                Policy: 2.23.146.1.2.1.4
            X509v3 CRL Distribution Points: 
                Full Name:
                  URI:http://gsma-crl.symauth.com/offlineca/gsma-rsp2-root-ci1.crl
            X509v3 Key Usage: critical
                Digital Signature
            X509v3 Subject Alternative Name: 
                Registered ID:1.2.643.6.82.836685.503.1.101
            X509v3 Authority Key Identifier: 
                81:37:0F:51:25:D0:B1:D4:08:D4:C3:B2:32:E6:D2:5E:79:5B:EB:FB
    Signature Algorithm: ecdsa-with-SHA256
    Signature Value:
        30:45:02:20:5b:a2:1d:6f:8b:f4:dd:df:31:2a:5b:8f:58:c6:
        57:00:7a:96:c1:24:99:8b:e0:a5:85:1e:b4:a3:e5:c1:77:b3:
        02:21:00:b3:db:d1:2d:ce:8a:1d:38:af:28:bc:8f:2f:f5:01:
        32:68:68:99:a9:c7:18:72:a3:8d:8c:78:05:55:41:a8:30
-----BEGIN CERTIFICATE-----
MIICbzCCAhWgAwIBAgIQYo3/5njC6+9Phx48DlnXhTAKBggqhkjOPQQDAjBEMRgw
FgYDVQQKEw9HU00gQXNzb2NpYXRpb24xKDAmBgNVBAMTH0dTTSBBc3NvY2lhdGlv
biAtIFJTUDIgUm9vdCBDSTEwHhcNMjEwMjI0MDAwMDAwWhcNMjQwMjIzMjM1OTU5
WjBYMQswCQYDVQQGEwJSVTEYMBYGA1UEBwwPTml6aG55IE5vdmdvcm9kMRUwEwYD
VQQKDAxOb3ZhQ2FyZCBKU0MxGDAWBgNVBAMMD3JzcC5ub3ZhY2FyZC5ydTBZMBMG
ByqGSM49AgEGCCqGSM49AwEHA0IABN8DqvsTAhjMss0YYlSwcGzquxbEEKnH7m7N
lMaA9c8A34wDhHEaqYwg+gXHvqTolHeRE+waKG7BTs3h2NAbc+ajgdQwgdEwHQYD
VR0OBBYEFEqekSMqkD6ivE1U/jKpVopwCak0MBcGA1UdIAEB/wQNMAswCQYHZ4ES
AQIBBDBNBgNVHR8ERjBEMEKgQKA+hjxodHRwOi8vZ3NtYS1jcmwuc3ltYXV0aC5j
b20vb2ZmbGluZWNhL2dzbWEtcnNwMi1yb290LWNpMS5jcmwwDgYDVR0PAQH/BAQD
AgeAMBcGA1UdEQQQMA6IDCqFAwZSs4hNg3cBZTAfBgNVHSMEGDAWgBSBNw9RJdCx
1AjUw7Iy5tJeeVvr+zAKBggqhkjOPQQDAgNIADBFAiBboh1vi/Td3zEqW49YxlcA
epbBJJmL4KWFHrSj5cF3swIhALPb0S3Oih04ryi8jy/1ATJoaJmpxxhyo42MeAVV
Qagw
-----END CERTIFICATE-----
