Certificate:
    Data:
        Version: 3 (0x2)
        Serial Number:
            54:0d:ad:86:b8:17:2e:4e:98:d4:8b:57:8f:5a:66:10
        Signature Algorithm: ecdsa-with-SHA256
        Issuer: C=US, O=Entrust, Inc., OU=See www.entrust.net/legal-terms, OU=(c) 2016 Entrust, Inc. - for authorized use only, CN=Entrust eSIM Certification Authority
        Validity
            Not Before: Jun  3 17:37:07 2022 GMT
            Not After : Jun  3 17:37:06 2024 GMT
        Subject: C=FR, L=Courbevoie, O=IDEMIA France, CN=OT M-Connect EWA DP, emailAddress=Connectivity_SRE@idemia.com
        Subject Public Key Info:
            Public Key Algorithm: id-ecPublicKey
                Public-Key: (256 bit)
                pub:
                    04:29:41:f9:d5:29:a9:f0:62:8b:21:6a:2e:e3:62:
                    dc:97:04:74:bb:31:3e:d2:de:0c:cf:b7:a8:a8:fb:
                    5f:85:49:8a:8a:5c:4d:75:71:3a:70:4c:af:d7:4b:
                    52:b9:f9:c0:86:5c:5e:57:1f:01:c6:d6:bc:38:de:
                    db:d0:b5:62:31
                ASN1 OID: prime256v1
                NIST CURVE: P-256
        X509v3 extensions:
            X509v3 Basic Constraints: critical
                CA:FALSE
            X509v3 Subject Key Identifier: 
                EE:B7:52:FD:58:B7:6F:0A:C3:8F:B9:BA:D8:FA:EC:36:EE:64:B2:A6
            X509v3 Authority Key Identifier: 
                16:70:4B:7F:35:1E:36:07:F1:8C:4B:70:00:5C:3A:00:3D:FD:41:4A
            X509v3 CRL Distribution Points: 
                Full Name:
                  URI:http://crl.entrust.net/entesimca.crl
            X509v3 Subject Alternative Name: 
                Registered ID:1.3.6.1.4.1.30703.836685.503.401.101
            X509v3 Key Usage: critical
                Digital Signature
            X509v3 Certificate Policies: critical
                Policy: 2.23.146.1.2.1.4
    Signature Algorithm: ecdsa-with-SHA256
    Signature Value:
        30:44:02:20:76:74:6a:66:84:fd:1c:e7:15:3d:c7:b1:ed:f9:
        1f:32:57:d5:cd:9c:32:c3:5b:a0:f6:d8:e8:6e:70:86:ec:8b:
        02:20:4b:18:26:97:aa:ed:15:8f:f9:5d:be:43:43:ae:a6:c8:
        99:06:e8:62:d2:87:16:48:fb:70:f9:5b:cf:7f:4e:6c
-----BEGIN CERTIFICATE-----
MIIDCzCCArKgAwIBAgIQVA2thrgXLk6Y1ItXj1pmEDAKBggqhkjOPQQDAjCBuTEL
MAkGA1UEBhMCVVMxFjAUBgNVBAoTDUVudHJ1c3QsIEluYy4xKDAmBgNVBAsTH1Nl
ZSB3d3cuZW50cnVzdC5uZXQvbGVnYWwtdGVybXMxOTA3BgNVBAsTMChjKSAyMDE2
IEVudHJ1c3QsIEluYy4gLSBmb3IgYXV0aG9yaXplZCB1c2Ugb25seTEtMCsGA1UE
AxMkRW50cnVzdCBlU0lNIENlcnRpZmljYXRpb24gQXV0aG9yaXR5MB4XDTIyMDYw
MzE3MzcwN1oXDTI0MDYwMzE3MzcwNlowgYQxCzAJBgNVBAYTAkZSMRMwEQYDVQQH
EwpDb3VyYmV2b2llMRYwFAYDVQQKEw1JREVNSUEgRnJhbmNlMRwwGgYDVQQDExNP
VCBNLUNvbm5lY3QgRVdBIERQMSowKAYJKoZIhvcNAQkBFhtDb25uZWN0aXZpdHlf
U1JFQGlkZW1pYS5jb20wWTATBgcqhkjOPQIBBggqhkjOPQMBBwNCAAQpQfnVKanw
Yoshai7jYtyXBHS7MT7S3gzPt6io+1+FSYqKXE11cTpwTK/XS1K5+cCGXF5XHwHG
1rw43tvQtWIxo4HOMIHLMAwGA1UdEwEB/wQCMAAwHQYDVR0OBBYEFO63Uv1Yt28K
w4+5utj67DbuZLKmMB8GA1UdIwQYMBaAFBZwS381HjYH8YxLcABcOgA9/UFKMDUG
A1UdHwQuMCwwKqAooCaGJGh0dHA6Ly9jcmwuZW50cnVzdC5uZXQvZW50ZXNpbWNh
LmNybDAbBgNVHREEFDASiBArBgEEAYHvb7OITYN3gxFlMA4GA1UdDwEB/wQEAwIH
gDAXBgNVHSABAf8EDTALMAkGB2eBEgECAQQwCgYIKoZIzj0EAwIDRwAwRAIgdnRq
ZoT9HOcVPcex7fkfMlfVzZwyw1ug9tjobnCG7IsCIEsYJpeq7RWP+V2+Q0OupsiZ
Buhi0ocWSPtw+VvPf05s
-----END CERTIFICATE-----
