Certificate:
    Data:
        Version: 3 (0x2)
        Serial Number:
            78:b6:bb:58:12:19:25:9e:7a:33:d2:aa:63:5c:9c:b3
        Signature Algorithm: ecdsa-with-SHA256
        Issuer: O=GSM Association, CN=GSM Association - RSP2 Root CI1
        Validity
            Not Before: Apr 21 00:00:00 2022 GMT
            Not After : Apr 20 23:59:59 2025 GMT
        Subject: C=CN, O=XH Smart Tech, CN=XH SM-DP+ auth
        Subject Public Key Info:
            Public Key Algorithm: id-ecPublicKey
                Public-Key: (256 bit)
                pub:
                    04:f0:46:2a:37:ad:a1:ab:bd:71:a8:9c:80:10:2c:
                    b9:ad:87:b9:64:18:03:30:1a:a8:6f:48:a7:55:ac:
                    28:f6:6d:f3:87:05:31:16:d9:63:ca:c7:a0:89:e2:
                    2a:ba:08:f1:b3:68:d0:eb:43:1e:cc:a2:40:0f:f4:
                    3e:ff:fb:a9:f1
                ASN1 OID: prime256v1
                NIST CURVE: P-256
        X509v3 extensions:
            X509v3 Certificate Policies: critical
                Policy: 2.23.146.1.2.1.4
            X509v3 CRL Distribution Points: 
                Full Name:
                  URI:http://gsma-crl.symauth.com/offlineca/gsma-rsp2-root-ci1.crl
            X509v3 Key Usage: critical
                Digital Signature
            X509v3 Subject Alternative Name: 
                Registered ID:1.3.6.1.4.1.58730.100.1.1
            X509v3 Subject Key Identifier: 
                0C:3B:8E:07:7A:B4:81:A2:58:49:A8:33:6C:6C:9A:CC:49:AF:3B:DC
            X509v3 Authority Key Identifier: 
                81:37:0F:51:25:D0:B1:D4:08:D4:C3:B2:32:E6:D2:5E:79:5B:EB:FB
    Signature Algorithm: ecdsa-with-SHA256
    Signature Value:
        30:45:02:21:00:b7:e3:09:02:07:38:82:29:51:b5:ec:56:f7:
        49:49:e2:0b:10:32:b8:98:54:f6:d1:10:a0:bc:58:0d:60:e0:
        56:02:20:39:cd:bc:de:3a:34:4c:cd:a2:6c:8f:cd:07:f9:96:
        99:18:8c:7f:47:3a:b7:1f:b2:c8:2e:50:4b:ac:28:48:3b
-----BEGIN CERTIFICATE-----
MIICVDCCAfqgAwIBAgIQeLa7WBIZJZ56M9KqY1ycszAKBggqhkjOPQQDAjBEMRgw
FgYDVQQKEw9HU00gQXNzb2NpYXRpb24xKDAmBgNVBAMTH0dTTSBBc3NvY2lhdGlv
biAtIFJTUDIgUm9vdCBDSTEwHhcNMjIwNDIxMDAwMDAwWhcNMjUwNDIwMjM1OTU5
WjA+MQswCQYDVQQGEwJDTjEWMBQGA1UECgwNWEggU21hcnQgVGVjaDEXMBUGA1UE
AwwOWEggU00tRFArIGF1dGgwWTATBgcqhkjOPQIBBggqhkjOPQMBBwNCAATwRio3
raGrvXGonIAQLLmth7lkGAMwGqhvSKdVrCj2bfOHBTEW2WPKx6CJ4iq6CPGzaNDr
Qx7MokAP9D7/+6nxo4HTMIHQMBcGA1UdIAEB/wQNMAswCQYHZ4ESAQIBBDBNBgNV
HR8ERjBEMEKgQKA+hjxodHRwOi8vZ3NtYS1jcmwuc3ltYXV0aC5jb20vb2ZmbGlu
ZWNhL2dzbWEtcnNwMi1yb290LWNpMS5jcmwwDgYDVR0PAQH/BAQDAgeAMBYGA1Ud
EQQPMA2ICysGAQQBg8pqZAEBMB0GA1UdDgQWBBQMO44HerSBolhJqDNsbJrMSa87
3DAfBgNVHSMEGDAWgBSBNw9RJdCx1AjUw7Iy5tJeeVvr+zAKBggqhkjOPQQDAgNI
ADBFAiEAt+MJAgc4gilRtexW90lJ4gsQMriYVPbREKC8WA1g4FYCIDnNvN46NEzN
omyPzQf5lpkYjH9HOrcfssguUEusKEg7
-----END CERTIFICATE-----
