Certificate:
    Data:
        Version: 3 (0x2)
        Serial Number:
            17:71:da:e7:9e:79:32:74:57:cb:cc:b2:7e:ff:4a:2f
        Signature Algorithm: ecdsa-with-SHA256
        Issuer: O=Symantec Corporation, CN=Symantec Corporation RSP Test Root CA - For Test Purposes Only
        Validity
            Not Before: May 14 00:00:00 2019 GMT
            Not After : May 13 23:59:59 2022 GMT
        Subject: CN=Google LLC DPauth Prod, O=Google LLC
        Subject Public Key Info:
            Public Key Algorithm: id-ecPublicKey
                Public-Key: (256 bit)
                pub:
                    04:cc:0a:32:a5:a7:b8:18:52:8a:af:77:ee:f1:80:
                    2f:21:90:5d:4e:1a:74:34:34:cc:7b:d0:39:74:ff:
                    99:c2:9f:2b:09:d0:ae:6b:19:2a:08:40:fa:49:28:
                    f1:65:cb:88:9f:74:42:97:7f:54:4d:4f:55:30:88:
                    5d:79:de:e0:34
                ASN1 OID: prime256v1
                NIST CURVE: P-256
        X509v3 extensions:
            X509v3 Key Usage: critical
                Digital Signature
            X509v3 Subject Key Identifier: 
                E1:0F:14:35:58:34:2B:BD:22:9C:48:9F:1B:69:C0:09:2C:34:1F:D9
            X509v3 Subject Alternative Name: 
                Registered ID:1.3.6.1.4.1.11129.6.1.3
            X509v3 Certificate Policies: critical
                Policy: 2.23.146.1.2.1.4
            X509v3 CRL Distribution Points: 
                Full Name:
                  URI:http://pki-crl.symauth.com/ca_a3dc2e3fea7708a11c889386d9d3a76f/LatestCRL.crl
            X509v3 Authority Key Identifier: 
                66:5A:14:33:D6:7C:1A:2C:5D:B8:B5:2C:96:7F:10:A0:57:BA:5C:B2
    Signature Algorithm: ecdsa-with-SHA256
    Signature Value:
        30:45:02:20:58:43:86:63:ff:65:92:1c:bc:8e:d9:f1:26:01:
        a3:f4:3c:64:9f:84:cf:9c:cb:f9:3d:5e:f1:c8:62:e8:2a:88:
        02:21:00:d7:e5:28:e8:54:53:40:a5:9d:56:7a:a6:bb:1f:58:
        cf:5f:63:6f:ea:2b:67:86:ba:bf:03:02:17:a4:9b:7e:4d
-----BEGIN CERTIFICATE-----
MIICfzCCAiWgAwIBAgIQF3Ha5555MnRXy8yyfv9KLzAKBggqhkjOPQQDAjBoMR0w
GwYDVQQKExRTeW1hbnRlYyBDb3Jwb3JhdGlvbjFHMEUGA1UEAxM+U3ltYW50ZWMg
Q29ycG9yYXRpb24gUlNQIFRlc3QgUm9vdCBDQSAtIEZvciBUZXN0IFB1cnBvc2Vz
IE9ubHkwHhcNMTkwNTE0MDAwMDAwWhcNMjIwNTEzMjM1OTU5WjA2MR8wHQYDVQQD
DBZHb29nbGUgTExDIERQYXV0aCBQcm9kMRMwEQYDVQQKDApHb29nbGUgTExDMFkw
EwYHKoZIzj0CAQYIKoZIzj0DAQcDQgAEzAoypae4GFKKr3fu8YAvIZBdThp0NDTM
e9A5dP+Zwp8rCdCuaxkqCED6SSjxZcuIn3RCl39UTU9VMIhded7gNKOB4jCB3zAO
BgNVHQ8BAf8EBAMCB4AwHQYDVR0OBBYEFOEPFDVYNCu9IpxInxtpwAksNB/ZMBUG
A1UdEQQOMAyICisGAQQB1nkGAQMwFwYDVR0gAQH/BA0wCzAJBgdngRIBAgEEMF0G
A1UdHwRWMFQwUqBQoE6GTGh0dHA6Ly9wa2ktY3JsLnN5bWF1dGguY29tL2NhX2Ez
ZGMyZTNmZWE3NzA4YTExYzg4OTM4NmQ5ZDNhNzZmL0xhdGVzdENSTC5jcmwwHwYD
VR0jBBgwFoAUZloUM9Z8GixduLUsln8QoFe6XLIwCgYIKoZIzj0EAwIDSAAwRQIg
WEOGY/9lkhy8jtnxJgGj9Dxkn4TPnMv5PV7xyGLoKogCIQDX5SjoVFNApZ1Weqa7
H1jPX2Nv6itnhrq/AwIXpJt+TQ==
-----END CERTIFICATE-----
