Certificate:
    Data:
        Version: 3 (0x2)
        Serial Number:
            e0:47:a4:6a:29:35:6b:b3:9b:73:72:37:75:0e:a2:5d:74:fe:0b
        Signature Algorithm: ecdsa-with-SHA256
        Issuer: C=DE, OU=Mobile Security, O=Giesecke and Devrient GmbH, CN=SubMan V4.2 CI Google Pixel
        Validity
            Not Before: May  8 00:00:00 2019 GMT
            Not After : May  8 00:00:00 2022 GMT
        Subject: CN=Google LLC DPauth Prod, OU=RSP, O=Google LLC, L=Mountain View, ST=California, C=US
        Subject Public Key Info:
            Public Key Algorithm: id-ecPublicKey
                Public-Key: (256 bit)
                pub:
                    04:cc:0a:32:a5:a7:b8:18:52:8a:af:77:ee:f1:80:
                    2f:21:90:5d:4e:1a:74:34:34:cc:7b:d0:39:74:ff:
                    99:c2:9f:2b:09:d0:ae:6b:19:2a:08:40:fa:49:28:
                    f1:65:cb:88:9f:74:42:97:7f:54:4d:4f:55:30:88:
                    5d:79:de:e0:34
                ASN1 OID: prime256v1
                NIST CURVE: P-256
        X509v3 extensions:
            X509v3 Authority Key Identifier: 
                B6:0F:0B:89:7F:D6:30:B8:8C:FE:D6:16:1F:8E:A8:08:C5:38:2A:C3
            X509v3 Subject Key Identifier: 
                E1:0F:14:35:58:34:2B:BD:22:9C:48:9F:1B:69:C0:09:2C:34:1F:D9
            X509v3 Subject Alternative Name: 
                Registered ID:1.3.6.1.4.1.11129.6.1.3
            X509v3 Certificate Policies: critical
                Policy: 2.23.146.1.2.1.4
            X509v3 Key Usage: critical
                Digital Signature
    Signature Algorithm: ecdsa-with-SHA256
    Signature Value:
        30:45:02:21:00:a7:fa:2a:e2:c5:0a:d5:88:a3:b1:d7:10:1b:
        e6:2b:5d:e3:25:69:72:42:5f:9a:e8:96:02:ad:37:1e:80:5f:
        52:02:20:5f:9f:06:ae:c6:3b:bb:4c:69:a4:bc:5d:f2:e7:e8:
        c6:59:f0:a9:cf:73:2b:c0:1a:c5:f8:88:4e:dc:9f:7d:d8
-----BEGIN CERTIFICATE-----
MIICdjCCAhygAwIBAgIUAOBHpGopNWuzm3NyN3UOol10/gswCgYIKoZIzj0EAwIw
cjELMAkGA1UEBhMCREUxGDAWBgNVBAsMD01vYmlsZSBTZWN1cml0eTEjMCEGA1UE
CgwaR2llc2Vja2UgYW5kIERldnJpZW50IEdtYkgxJDAiBgNVBAMMG1N1Yk1hbiBW
NC4yIENJIEdvb2dsZSBQaXhlbDAeFw0xOTA1MDgwMDAwMDBaFw0yMjA1MDgwMDAw
MDBaMH4xHzAdBgNVBAMMFkdvb2dsZSBMTEMgRFBhdXRoIFByb2QxDDAKBgNVBAsM
A1JTUDETMBEGA1UECgwKR29vZ2xlIExMQzEWMBQGA1UEBwwNTW91bnRhaW4gVmll
dzETMBEGA1UECAwKQ2FsaWZvcm5pYTELMAkGA1UEBhMCVVMwWTATBgcqhkjOPQIB
BggqhkjOPQMBBwNCAATMCjKlp7gYUoqvd+7xgC8hkF1OGnQ0NMx70Dl0/5nCnysJ
0K5rGSoIQPpJKPFly4ifdEKXf1RNT1UwiF153uA0o4GDMIGAMB8GA1UdIwQYMBaA
FLYPC4l/1jC4jP7WFh+OqAjFOCrDMB0GA1UdDgQWBBThDxQ1WDQrvSKcSJ8bacAJ
LDQf2TAVBgNVHREEDjAMiAorBgEEAdZ5BgEDMBcGA1UdIAEB/wQNMAswCQYHZ4ES
AQIBBDAOBgNVHQ8BAf8EBAMCB4AwCgYIKoZIzj0EAwIDSAAwRQIhAKf6KuLFCtWI
o7HXEBvmK13jJWlyQl+a6JYCrTcegF9SAiBfnwauxju7TGmkvF3y5+jGWfCpz3Mr
wBrF+IhO3J992A==
-----END CERTIFICATE-----
