Certificate:
    Data:
        Version: 3 (0x2)
        Serial Number:
            24:b6:6f:a3:ec:c3:c8:c5:83:1c:5e:7b:23:35:b8:5d
        Signature Algorithm: ecdsa-with-SHA256
        Issuer: O=GSM Association, CN=GSM Association - RSP2 Root CI1
        Validity
            Not Before: Feb 23 00:00:00 2022 GMT
            Not After : Feb 22 23:59:59 2025 GMT
        Subject: C=LB, ST=Mount Lebanon, L=Mansourieh, O=Invigo Offshore SAL, OU=Certificates and Key Management Team, CN=rsp.invigo.com
        Subject Public Key Info:
            Public Key Algorithm: id-ecPublicKey
                Public-Key: (256 bit)
                pub:
                    04:52:05:9c:f5:10:d9:4c:43:ae:98:e1:a4:69:1d:
                    50:38:64:c2:15:13:c5:a4:95:63:ef:2f:06:a1:7f:
                    fd:3f:f6:93:54:99:2f:a1:85:42:38:81:03:89:c4:
                    b9:2b:95:9e:62:ee:7e:3d:4f:40:7c:82:56:cb:11:
                    73:38:59:7b:82
                ASN1 OID: prime256v1
                NIST CURVE: P-256
        X509v3 extensions:
            X509v3 Subject Key Identifier: 
                60:D4:7C:2C:5F:12:E7:BE:AD:09:1A:81:D4:28:3F:26:E9:B4:47:01
            X509v3 Certificate Policies: critical
                Policy: 2.23.146.1.2.1.4
            X509v3 CRL Distribution Points: 
                Full Name:
                  URI:http://gsma-crl.symauth.com/offlineca/gsma-rsp2-root-ci1.crl
            X509v3 Key Usage: critical
                Digital Signature
            X509v3 Subject Alternative Name: 
                Registered ID:1.3.6.1.4.1.53428.1.1.1.1
            X509v3 Authority Key Identifier: 
                81:37:0F:51:25:D0:B1:D4:08:D4:C3:B2:32:E6:D2:5E:79:5B:EB:FB
    Signature Algorithm: ecdsa-with-SHA256
    Signature Value:
        30:44:02:20:65:e3:a9:45:8b:b9:eb:37:49:87:2a:81:5c:83:
        e4:be:4d:b6:ab:0b:eb:66:2a:73:a8:03:1a:8f:7b:07:1f:9d:
        02:20:4b:d6:64:1f:cc:c8:0e:81:28:19:85:86:0f:e3:c3:cf:
        c8:ae:d3:e6:a2:b3:0f:98:ab:ae:b8:b1:98:f5:d2:84
-----BEGIN CERTIFICATE-----
MIICtzCCAl6gAwIBAgIQJLZvo+zDyMWDHF57IzW4XTAKBggqhkjOPQQDAjBEMRgw
FgYDVQQKEw9HU00gQXNzb2NpYXRpb24xKDAmBgNVBAMTH0dTTSBBc3NvY2lhdGlv
biAtIFJTUDIgUm9vdCBDSTEwHhcNMjIwMjIzMDAwMDAwWhcNMjUwMjIyMjM1OTU5
WjCBoDELMAkGA1UEBhMCTEIxFjAUBgNVBAgTDU1vdW50IExlYmFub24xEzARBgNV
BAcTCk1hbnNvdXJpZWgxHDAaBgNVBAoTE0ludmlnbyBPZmZzaG9yZSBTQUwxLTAr
BgNVBAsTJENlcnRpZmljYXRlcyBhbmQgS2V5IE1hbmFnZW1lbnQgVGVhbTEXMBUG
A1UEAxMOcnNwLmludmlnby5jb20wWTATBgcqhkjOPQIBBggqhkjOPQMBBwNCAARS
BZz1ENlMQ66Y4aRpHVA4ZMIVE8WklWPvLwahf/0/9pNUmS+hhUI4gQOJxLkrlZ5i
7n49T0B8glbLEXM4WXuCo4HUMIHRMB0GA1UdDgQWBBRg1HwsXxLnvq0JGoHUKD8m
6bRHATAXBgNVHSABAf8EDTALMAkGB2eBEgECAQQwTQYDVR0fBEYwRDBCoECgPoY8
aHR0cDovL2dzbWEtY3JsLnN5bWF1dGguY29tL29mZmxpbmVjYS9nc21hLXJzcDIt
cm9vdC1jaTEuY3JsMA4GA1UdDwEB/wQEAwIHgDAXBgNVHREEEDAOiAwrBgEEAYOh
NAEBAQEwHwYDVR0jBBgwFoAUgTcPUSXQsdQI1MOyMubSXnlb6/swCgYIKoZIzj0E
AwIDRwAwRAIgZeOpRYu56zdJhyqBXIPkvk22qwvrZipzqAMaj3sHH50CIEvWZB/M
yA6BKBmFhg/jw8/IrtPmorMPmKuuuLGY9dKE
-----END CERTIFICATE-----
