Certificate:
    Data:
        Version: 3 (0x2)
        Serial Number: 112114 (0x1b5f2)
        Signature Algorithm: ecdsa-with-SHA256
        Issuer: C=CN, ST=BEIJING, L=BEIJING, OU=CTTL, O=CAICT, CN=Taier eSIM Root CA - NISTP256
        Validity
            Not Before: Jun 30 09:21:54 2023 GMT
            Not After : Jun 30 09:21:54 2025 GMT
        Subject: C=CN, ST=Beijing, L=Beijing, OU=IT, O=China Telecom, CN=*.crm.189.cn
        Subject Public Key Info:
            Public Key Algorithm: id-ecPublicKey
                Public-Key: (256 bit)
                pub:
                    04:4f:95:23:5c:2c:f0:a9:6f:92:1d:d7:a4:e6:a5:
                    8e:6e:bf:5c:a1:6d:04:6e:e5:a0:8f:a6:7b:f1:5a:
                    76:1f:b4:e3:7c:f7:5b:f3:b2:3c:b9:15:75:da:76:
                    dd:47:a9:1b:e8:90:5b:91:50:f5:a5:f4:3f:5b:8c:
                    86:7c:e6:d9:af
                ASN1 OID: prime256v1
                NIST CURVE: P-256
        X509v3 extensions:
            X509v3 Authority Key Identifier: 
                14:80:30:FC:24:6C:02:FF:22:21:06:12:5A:8D:6B:DA:99:0A:FB:E9
            X509v3 Subject Key Identifier: 
                BD:81:EE:F9:9B:77:33:84:C8:0C:62:D4:E9:E4:BF:60:B7:64:D9:B7
            X509v3 Key Usage: critical
                Digital Signature
            X509v3 Certificate Policies: critical
                Policy: 2.23.146.1.2.1.4
            X509v3 Subject Alternative Name: 
                Registered ID:1.3.6.1.4.1.49625.12
            X509v3 CRL Distribution Points: 
                Full Name:
                  URI:http://crl.uni-ca.com.cn/download/n1.crl
                Full Name:
                  URI:http://crl.uni-ca.com.cn/download/n2.crl
    Signature Algorithm: ecdsa-with-SHA256
    Signature Value:
        30:45:02:21:00:a9:02:5c:8e:ec:5e:78:bf:f5:93:49:25:56:
        49:ee:e2:7c:e5:cc:f3:a5:b8:10:d9:25:0f:47:e6:30:98:e7:
        d4:02:20:44:b5:96:fb:7b:ea:c0:e7:7c:b1:5c:d8:85:7e:a3:
        51:b7:0a:82:74:03:ce:fb:a6:48:0a:94:3e:75:16:99:8a
-----BEGIN CERTIFICATE-----
MIICxDCCAmqgAwIBAgIDAbXyMAoGCCqGSM49BAMCMHgxCzAJBgNVBAYTAkNOMRAw
DgYDVQQIDAdCRUlKSU5HMRAwDgYDVQQHDAdCRUlKSU5HMQ0wCwYDVQQLDARDVFRM
MQ4wDAYDVQQKDAVDQUlDVDEmMCQGA1UEAwwdVGFpZXIgZVNJTSBSb290IENBIC0g
TklTVFAyNTYwHhcNMjMwNjMwMDkyMTU0WhcNMjUwNjMwMDkyMTU0WjBtMQswCQYD
VQQGEwJDTjEQMA4GA1UECAwHQmVpamluZzEQMA4GA1UEBwwHQmVpamluZzELMAkG
A1UECwwCSVQxFjAUBgNVBAoMDUNoaW5hIFRlbGVjb20xFTATBgNVBAMMDCouY3Jt
LjE4OS5jbjBZMBMGByqGSM49AgEGCCqGSM49AwEHA0IABE+VI1ws8Klvkh3XpOal
jm6/XKFtBG7loI+me/Fadh+043z3W/OyPLkVddp23UepG+iQW5FQ9aX0P1uMhnzm
2a+jge0wgeowHwYDVR0jBBgwFoAUFIAw/CRsAv8iIQYSWo1r2pkK++kwHQYDVR0O
BBYEFL2B7vmbdzOEyAxi1Onkv2C3ZNm3MA4GA1UdDwEB/wQEAwIHgDAXBgNVHSAB
Af8EDTALMAkGB2eBEgECAQQwFAYDVR0RBA0wC4gJKwYBBAGDg1kMMGkGA1UdHwRi
MGAwLqAsoCqGKGh0dHA6Ly9jcmwudW5pLWNhLmNvbS5jbi9kb3dubG9hZC9uMS5j
cmwwLqAsoCqGKGh0dHA6Ly9jcmwudW5pLWNhLmNvbS5jbi9kb3dubG9hZC9uMi5j
cmwwCgYIKoZIzj0EAwIDSAAwRQIhAKkCXI7sXni/9ZNJJVZJ7uJ85czzpbgQ2SUP
R+YwmOfUAiBEtZb7e+rA53yxXNiFfqNRtwqCdAPO+6ZICpQ+dRaZig==
-----END CERTIFICATE-----
