Certificate:
    Data:
        Version: 3 (0x2)
        Serial Number: 117652 (0x1cb94)
        Signature Algorithm: ecdsa-with-SHA256
        Issuer: C=CN, ST=JILIN, L=CHANGCHUN, OU=CUCA, O=CU, CN=China Unicom eSIM Root CA
        Validity
            Not Before: Dec 20 06:38:23 2022 GMT
            Not After : Dec 20 06:38:23 2024 GMT
        Subject: C=CN, ST=BEIJING, L=BEIJING, OU=IT, O=China Telecom, CN=esim.crm.189.cn
        Subject Public Key Info:
            Public Key Algorithm: id-ecPublicKey
                Public-Key: (256 bit)
                pub:
                    04:40:b4:43:2c:4d:93:34:da:05:0e:bb:d7:5a:41:
                    53:26:3d:e6:f1:d4:89:bb:98:de:81:2d:50:9d:ae:
                    88:8a:8f:b2:f9:97:bf:34:b2:53:68:fd:06:50:e7:
                    7b:f0:3d:f3:2d:c9:8e:3e:33:37:05:3c:01:72:f8:
                    a3:93:ed:22:82
                ASN1 OID: prime256v1
                NIST CURVE: P-256
        X509v3 extensions:
            X509v3 Authority Key Identifier: 
                16:B5:D1:60:48:E3:EA:02:BD:4B:60:6E:5F:77:A4:BF:20:80:8D:83
            X509v3 Subject Key Identifier: 
                8E:6E:C6:D7:C9:2E:B6:07:DB:CF:A9:9D:28:03:A5:91:FF:CE:8D:2F
            X509v3 Key Usage: critical
                Digital Signature
            X509v3 Certificate Policies: critical
                Policy: 2.23.146.1.2.1.4
            X509v3 Subject Alternative Name: 
                Registered ID:1.3.6.1.4.1.49625.12, DNS:esim.crm.189.cn
            X509v3 CRL Distribution Points: 
                Full Name:
                  URI:http://esimcrl.uni-ca.com.cn:6666/download/n1.crl
                Full Name:
                  URI:http://esimcrl.uni-ca.com.cn:6666/download/n2.crl
    Signature Algorithm: ecdsa-with-SHA256
    Signature Value:
        30:46:02:21:00:8d:89:4e:4f:68:10:61:47:a2:3b:6d:07:ed:
        f1:82:64:15:81:a2:84:2c:94:3b:60:90:f3:f0:94:0d:dc:85:
        ec:02:21:00:f1:7d:b5:d4:83:b7:80:94:d4:a1:bd:a6:01:8f:
        2d:e6:4e:04:0b:d3:18:d1:c3:3d:ff:b9:3d:a7:be:eb:ff:64
-----BEGIN CERTIFICATE-----
MIIC5jCCAougAwIBAgIDAcuUMAoGCCqGSM49BAMCMHExCzAJBgNVBAYTAkNOMQ4w
DAYDVQQIEwVKSUxJTjESMBAGA1UEBxMJQ0hBTkdDSFVOMQ0wCwYDVQQLEwRDVUNB
MQswCQYDVQQKEwJDVTEiMCAGA1UEAxMZQ2hpbmEgVW5pY29tIGVTSU0gUm9vdCBD
QTAeFw0yMjEyMjAwNjM4MjNaFw0yNDEyMjAwNjM4MjNaMHAxCzAJBgNVBAYTAkNO
MRAwDgYDVQQIEwdCRUlKSU5HMRAwDgYDVQQHEwdCRUlKSU5HMQswCQYDVQQLEwJJ
VDEWMBQGA1UEChMNQ2hpbmEgVGVsZWNvbTEYMBYGA1UEAxMPZXNpbS5jcm0uMTg5
LmNuMFkwEwYHKoZIzj0CAQYIKoZIzj0DAQcDQgAEQLRDLE2TNNoFDrvXWkFTJj3m
8dSJu5jegS1Qna6Iio+y+Ze/NLJTaP0GUOd78D3zLcmOPjM3BTwBcvijk+0igqOC
AREwggENMB8GA1UdIwQYMBaAFBa10WBI4+oCvUtgbl93pL8ggI2DMB0GA1UdDgQW
BBSObsbXyS62B9vPqZ0oA6WR/86NLzAOBgNVHQ8BAf8EBAMCB4AwFwYDVR0gAQH/
BA0wCzAJBgdngRIBAgEEMCUGA1UdEQQeMByICSsGAQQBg4NZDIIPZXNpbS5jcm0u
MTg5LmNuMHsGA1UdHwR0MHIwN6A1oDOGMWh0dHA6Ly9lc2ltY3JsLnVuaS1jYS5j
b20uY246NjY2Ni9kb3dubG9hZC9uMS5jcmwwN6A1oDOGMWh0dHA6Ly9lc2ltY3Js
LnVuaS1jYS5jb20uY246NjY2Ni9kb3dubG9hZC9uMi5jcmwwCgYIKoZIzj0EAwID
SQAwRgIhAI2JTk9oEGFHojttB+3xgmQVgaKELJQ7YJDz8JQN3IXsAiEA8X211IO3
gJTUob2mAY8t5k4EC9MY0cM9/7k9p77r/2Q=
-----END CERTIFICATE-----
