Certificate:
    Data:
        Version: 3 (0x2)
        Serial Number: 126710 (0x1eef6)
        Signature Algorithm: ecdsa-with-SHA256
        Issuer:
            C = CN
            ST = JILIN
            L = CHANGCHUN
            OU = CUCA
            O = CU
            CN = China Unicom eSIM Root CA
        Validity
            Not Before: Nov 20 02:21:53 2024 GMT
            Not After : Nov 20 02:21:53 2026 GMT
        Subject:
            C = CN
            ST = BEIJING
            L = BEIJING
            OU = IT
            O = China Telecom
            CN = esim.crm.189.cn
        Subject Public Key Info:
            Public Key Algorithm: id-ecPublicKey
                Public-Key: (256 bit)
                pub:
                    04:40:b4:43:2c:4d:93:34:da:05:0e:bb:d7:5a:41:
                    53:26:3d:e6:f1:d4:89:bb:98:de:81:2d:50:9d:ae:
                    88:8a:8f:b2:f9:97:bf:34:b2:53:68:fd:06:50:e7:
                    7b:f0:3d:f3:2d:c9:8e:3e:33:37:05:3c:01:72:f8:
                    a3:93:ed:22:82
                ASN1 OID: prime256v1
                NIST CURVE: P-256
        X509v3 extensions:
            X509v3 Authority Key Identifier: 
                16:B5:D1:60:48:E3:EA:02:BD:4B:60:6E:5F:77:A4:BF:20:80:8D:83
            X509v3 Subject Key Identifier: 
                8E:6E:C6:D7:C9:2E:B6:07:DB:CF:A9:9D:28:03:A5:91:FF:CE:8D:2F
            X509v3 Key Usage: critical
                Digital Signature
            X509v3 Certificate Policies: critical
                Policy: 2.23.146.1.2.1.4
            X509v3 Subject Alternative Name: 
                Registered ID:1.3.6.1.4.1.49625.12, DNS:esim.crm.189.cn
            X509v3 CRL Distribution Points: 
                Full Name:
                  URI:http://esimcrl.uni-ca.com.cn:6666/download/n1.crl
                Full Name:
                  URI:http://esimcrl.uni-ca.com.cn:6666/download/n2.crl
    Signature Algorithm: ecdsa-with-SHA256
    Signature Value:
        30:44:02:20:35:7d:d0:f7:58:f7:1f:f4:6a:eb:30:ee:96:c8:
        23:92:c8:dd:86:1b:4f:e3:e9:6b:cb:e1:1c:79:07:ce:4a:c8:
        02:20:21:2d:14:93:ee:a0:de:9e:7a:52:31:8b:b0:fa:dd:6f:
        96:b3:8d:13:83:9b:4c:39:47:0d:5a:6a:9f:0f:bd:92
-----BEGIN CERTIFICATE-----
MIIC5DCCAougAwIBAgIDAe72MAoGCCqGSM49BAMCMHExCzAJBgNVBAYTAkNOMQ4w
DAYDVQQIEwVKSUxJTjESMBAGA1UEBxMJQ0hBTkdDSFVOMQ0wCwYDVQQLEwRDVUNB
MQswCQYDVQQKEwJDVTEiMCAGA1UEAxMZQ2hpbmEgVW5pY29tIGVTSU0gUm9vdCBD
QTAeFw0yNDExMjAwMjIxNTNaFw0yNjExMjAwMjIxNTNaMHAxCzAJBgNVBAYTAkNO
MRAwDgYDVQQIEwdCRUlKSU5HMRAwDgYDVQQHEwdCRUlKSU5HMQswCQYDVQQLEwJJ
VDEWMBQGA1UEChMNQ2hpbmEgVGVsZWNvbTEYMBYGA1UEAxMPZXNpbS5jcm0uMTg5
LmNuMFkwEwYHKoZIzj0CAQYIKoZIzj0DAQcDQgAEQLRDLE2TNNoFDrvXWkFTJj3m
8dSJu5jegS1Qna6Iio+y+Ze/NLJTaP0GUOd78D3zLcmOPjM3BTwBcvijk+0igqOC
AREwggENMB8GA1UdIwQYMBaAFBa10WBI4+oCvUtgbl93pL8ggI2DMB0GA1UdDgQW
BBSObsbXyS62B9vPqZ0oA6WR/86NLzAOBgNVHQ8BAf8EBAMCB4AwFwYDVR0gAQH/
BA0wCzAJBgdngRIBAgEEMCUGA1UdEQQeMByICSsGAQQBg4NZDIIPZXNpbS5jcm0u
MTg5LmNuMHsGA1UdHwR0MHIwN6A1oDOGMWh0dHA6Ly9lc2ltY3JsLnVuaS1jYS5j
b20uY246NjY2Ni9kb3dubG9hZC9uMS5jcmwwN6A1oDOGMWh0dHA6Ly9lc2ltY3Js
LnVuaS1jYS5jb20uY246NjY2Ni9kb3dubG9hZC9uMi5jcmwwCgYIKoZIzj0EAwID
RwAwRAIgNX3Q91j3H/Rq6zDulsgjksjdhhtP4+lry+EceQfOSsgCICEtFJPuoN6e
elIxi7D63W+Ws40Tg5tMOUcNWmqfD72S
-----END CERTIFICATE-----
