Certificate:
    Data:
        Version: 3 (0x2)
        Serial Number: 1477361090890 (0x157f995414a)
        Signature Algorithm: ecdsa-with-SHA256
        Issuer: CN=China Unicom eSIM CA, OU=VSENS, O=China Unicom, C=CN
        Validity
            Not Before: Oct 25 02:04:50 2016 GMT
            Not After : Apr 25 02:04:50 2017 GMT
        Subject: emailAddress=caolt3@chinaunicom.cn, CN=TEST DPAUTH, O=VSENS, L=BEI JING, C=CN
        Subject Public Key Info:
            Public Key Algorithm: id-ecPublicKey
                Public-Key: (256 bit)
                pub:
                    04:99:c6:38:72:76:12:94:b3:fc:17:a9:d0:86:98:
                    5d:85:7c:a7:26:b3:ed:cb:21:4d:cc:90:e5:54:4c:
                    05:38:d1:b0:62:90:59:ef:4c:29:a7:92:1f:bb:9c:
                    c0:ed:9e:6c:03:0c:f5:6f:5d:b6:7a:27:81:9f:52:
                    f7:86:a3:d2:91
                ASN1 OID: prime256v1
                NIST CURVE: P-256
        X509v3 extensions:
            X509v3 Authority Key Identifier: 
                3B:D3:F5:7B:34:F4:44:36:E0:8F:02:8B:51:01:C0:E0:A9:B0:98:6E
            X509v3 Subject Key Identifier: 
                C3:72:BE:81:4E:FB:E1:8C:3A:FF:56:E3:37:66:B3:3D:50:73:33:EE
            X509v3 Key Usage: critical
                Digital Signature
            X509v3 Certificate Policies: critical
                Policy: 2.23.146.1.2.1.4
            X509v3 Subject Alternative Name: 
                Registered ID:1.3.6.1.4.1.47814.2.4
            X509v3 CRL Distribution Points: 
                Full Name:
                  URI:http://10.193.30.36/TASSCA/TASSCA_EUM/CRLCerti.CRL
    Signature Algorithm: ecdsa-with-SHA256
    Signature Value:
        30:44:02:20:1d:96:c5:2b:eb:ce:61:8f:7f:55:00:cc:6b:cd:
        10:f9:ef:c2:b4:4a:48:d8:43:41:df:7d:84:91:ca:a1:41:82:
        02:20:3d:42:43:c6:c5:f6:f9:90:7f:87:1b:e8:7f:a4:23:6c:
        0b:ca:ed:5d:53:a1:d5:8c:0c:cc:3e:fe:9e:0f:fc:c5
-----BEGIN CERTIFICATE-----
MIICfzCCAiagAwIBAgIGAVf5lUFKMAoGCCqGSM49BAMCMFMxHTAbBgNVBAMMFENo
aW5hIFVuaWNvbSBlU0lNIENBMQ4wDAYDVQQLDAVWU0VOUzEVMBMGA1UECgwMQ2hp
bmEgVW5pY29tMQswCQYDVQQGDAJDTjAiGA8yMDE2MTAyNTAyMDQ1MFoYDzIwMTcw
NDI1MDIwNDUwWjBsMSQwIgYJKoZIhvcNAQkBFhVjYW9sdDNAY2hpbmF1bmljb20u
Y24xFDASBgNVBAMMC1RFU1QgRFBBVVRIMQ4wDAYDVQQKDAVWU0VOUzERMA8GA1UE
BwwIQkVJIEpJTkcxCzAJBgNVBAYMAkNOMFkwEwYHKoZIzj0CAQYIKoZIzj0DAQcD
QgAEmcY4cnYSlLP8F6nQhphdhXynJrPtyyFNzJDlVEwFONGwYpBZ70wpp5Ifu5zA
7Z5sAwz1b122eieBn1L3hqPSkaOByDCBxTAfBgNVHSMEGDAWgBQ70/V7NPRENuCP
AotRAcDgqbCYbjAdBgNVHQ4EFgQUw3K+gU774Yw6/1bjN2azPVBzM+4wDgYDVR0P
AQH/BAQDAgCAMBcGA1UdIAEB/wQNMAswCQYHZ4ESAQIBBDAVBgNVHREEDjAMiAor
BgEEAYL1RgIEMEMGA1UdHwQ8MDowOKA2oDSGMmh0dHA6Ly8xMC4xOTMuMzAuMzYv
VEFTU0NBL1RBU1NDQV9FVU0vQ1JMQ2VydGkuQ1JMMAoGCCqGSM49BAMCA0cAMEQC
IB2WxSvrzmGPf1UAzGvNEPnvwrRKSNhDQd99hJHKoUGCAiA9QkPGxfb5kH+HG+h/
pCNsC8rtXVOh1YwMzD7+ng/8xQ==
-----END CERTIFICATE-----
