Certificate:
    Data:
        Version: 3 (0x2)
        Serial Number: 1562945 (0x17d941)
        Signature Algorithm: ecdsa-with-SHA256
        Issuer: C=CN, O=CMCA, CN=CMCA eSIM Root CA_NIST
        Validity
            Not Before: Dec  8 09:10:53 2022 GMT
            Not After : Dec  8 09:10:53 2027 GMT
        Subject: C=CN, ST=BEIJING, L=BEIJING, O=China Telecom, OU=IT, CN=*.crm.189.cn
        Subject Public Key Info:
            Public Key Algorithm: id-ecPublicKey
                Public-Key: (256 bit)
                pub:
                    04:9d:ff:13:0e:fe:1e:c7:35:3c:99:de:04:bb:aa:
                    b3:8c:e7:9a:ec:21:aa:03:fd:50:2c:34:df:50:64:
                    51:98:88:5e:bd:6d:fc:36:e2:1b:7d:8b:59:0f:a8:
                    8d:43:22:6f:58:b0:84:3a:13:5c:e1:98:93:7f:75:
                    dd:b4:11:c9:75
                ASN1 OID: prime256v1
                NIST CURVE: P-256
        X509v3 extensions:
            X509v3 Authority Key Identifier: 
                CD:F6:D1:C0:A7:B0:7F:98:A8:61:B6:E3:78:B8:2F:64:8D:99:66:3E
            X509v3 Subject Key Identifier: 
                25:41:23:33:FF:76:9D:1A:33:88:95:76:51:9B:6E:4C:F2:70:2A:30
            X509v3 Key Usage: critical
                Digital Signature
            X509v3 Extended Key Usage: critical
                TLS Web Server Authentication, TLS Web Client Authentication
            X509v3 Certificate Policies: critical
                Policy: 2.23.146.1.2.1.4
            X509v3 Subject Alternative Name: 
                Registered ID:1.3.6.1.4.1.49625.12, DNS:*.crm.189.cn
            X509v3 CRL Distribution Points: 
                Full Name:
                  URI:http://221.176.65.55:8081/crldownload/nA.crl
                Full Name:
                  URI:http://221.176.65.55:8081/crldownload/nB.crl
    Signature Algorithm: ecdsa-with-SHA256
    Signature Value:
        30:46:02:21:00:a0:d3:b6:1f:18:32:78:92:f7:1b:f9:a4:1a:
        92:16:86:62:f4:70:52:b9:3b:e9:34:d2:07:22:96:36:00:dc:
        6b:02:21:00:ec:53:ea:16:ee:0f:22:46:57:37:9e:10:cf:57:
        8f:4c:a9:7e:3c:9c:78:6c:75:f7:04:95:cb:94:b2:9c:c8:d9
-----BEGIN CERTIFICATE-----
MIICxDCCAmmgAwIBAgIDF9lBMAoGCCqGSM49BAMCMD0xCzAJBgNVBAYTAkNOMQ0w
CwYDVQQKDARDTUNBMR8wHQYDVQQDDBZDTUNBIGVTSU0gUm9vdCBDQV9OSVNUMB4X
DTIyMTIwODA5MTA1M1oXDTI3MTIwODA5MTA1M1owbTELMAkGA1UEBhMCQ04xEDAO
BgNVBAgMB0JFSUpJTkcxEDAOBgNVBAcMB0JFSUpJTkcxFjAUBgNVBAoMDUNoaW5h
IFRlbGVjb20xCzAJBgNVBAsMAklUMRUwEwYDVQQDDAwqLmNybS4xODkuY24wWTAT
BgcqhkjOPQIBBggqhkjOPQMBBwNCAASd/xMO/h7HNTyZ3gS7qrOM55rsIaoD/VAs
NN9QZFGYiF69bfw24ht9i1kPqI1DIm9YsIQ6E1zhmJN/dd20Ecl1o4IBJjCCASIw
HwYDVR0jBBgwFoAUzfbRwKewf5ioYbbjeLgvZI2ZZj4wHQYDVR0OBBYEFCVBIzP/
dp0aM4iVdlGbbkzycCowMA4GA1UdDwEB/wQEAwIHgDAgBgNVHSUBAf8EFjAUBggr
BgEFBQcDAQYIKwYBBQUHAwIwFwYDVR0gAQH/BA0wCzAJBgdngRIBAgEEMCIGA1Ud
EQQbMBmICSsGAQQBg4NZDIIMKi5jcm0uMTg5LmNuMHEGA1UdHwRqMGgwMqAwoC6G
LGh0dHA6Ly8yMjEuMTc2LjY1LjU1OjgwODEvY3JsZG93bmxvYWQvbkEuY3JsMDKg
MKAuhixodHRwOi8vMjIxLjE3Ni42NS41NTo4MDgxL2NybGRvd25sb2FkL25CLmNy
bDAKBggqhkjOPQQDAgNJADBGAiEAoNO2HxgyeJL3G/mkGpIWhmL0cFK5O+k00gci
ljYA3GsCIQDsU+oW7g8iRlc3nhDPV49MqX48nHhsdfcElcuUspzI2Q==
-----END CERTIFICATE-----
