Certificate:
    Data:
        Version: 3 (0x2)
        Serial Number: 158320070046 (0x24dc9c8d9e)
        Signature Algorithm: ecdsa-with-SHA256
        Issuer:
            C = CN
            O = NETCA Certificate Authority
            CN = CCS NETCA eSIM ECC RootCA
        Validity
            Not Before: Nov 21 07:35:31 2024 GMT
            Not After : Nov 21 07:35:31 2026 GMT
        Subject:
            C = CN
            ST = BEIJING
            L = BEIJING
            O = China Telecom
            OU = IT
            CN = esimapple.crm.189.cn
        Subject Public Key Info:
            Public Key Algorithm: id-ecPublicKey
                Public-Key: (256 bit)
                pub:
                    04:65:e9:80:8c:42:dd:9a:8f:74:3a:bb:05:d5:39:
                    64:72:20:86:88:49:2d:53:45:01:8b:13:f3:88:6b:
                    8d:03:df:d7:ac:d0:b0:ac:69:fb:c2:77:40:94:83:
                    ee:63:a6:ad:e4:c5:a8:2f:e2:62:bb:d2:dd:06:b2:
                    cb:47:7b:eb:1c
                ASN1 OID: prime256v1
                NIST CURVE: P-256
        X509v3 extensions:
            X509v3 Subject Key Identifier: 
                AB:1F:65:7E:6A:86:DF:81:D9:5F:F7:0E:07:50:41:E1:B0:D3:2C:E8
            X509v3 Key Usage: critical
                Digital Signature
            X509v3 Subject Alternative Name: 
                Registered ID:1.3.6.1.4.1.49625.12
            X509v3 Basic Constraints: critical
                CA:FALSE
            X509v3 CRL Distribution Points: 
                Full Name:
                  URI:http://crl.cnca.net/esim/ccs/a.crl
            X509v3 Certificate Policies: critical
                Policy: 2.23.146.1.2.1.4
            X509v3 Authority Key Identifier: 
                D3:EF:83:FC:50:3F:9C:6E:C4:B7:F6:AE:05:5B:7F:13:73:D4:AB:1E
    Signature Algorithm: ecdsa-with-SHA256
    Signature Value:
        30:46:02:21:00:8c:ab:fb:2f:57:71:39:7a:27:14:10:06:69:
        31:74:47:98:88:9d:f8:02:a7:8e:55:c0:86:03:7a:be:05:b1:
        27:02:21:00:ae:66:a3:9d:76:25:66:9c:4f:44:77:eb:f5:2a:
        17:48:e6:b8:37:75:d4:92:f2:a2:b6:be:28:e9:1c:f3:69:6e
-----BEGIN CERTIFICATE-----
MIIChjCCAiugAwIBAgIFJNycjZ4wCgYIKoZIzj0EAwIwVzELMAkGA1UEBhMCQ04x
JDAiBgNVBAoMG05FVENBIENlcnRpZmljYXRlIEF1dGhvcml0eTEiMCAGA1UEAwwZ
Q0NTIE5FVENBIGVTSU0gRUNDIFJvb3RDQTAeFw0yNDExMjEwNzM1MzFaFw0yNjEx
MjEwNzM1MzFaMHUxCzAJBgNVBAYTAkNOMRAwDgYDVQQIDAdCRUlKSU5HMRAwDgYD
VQQHDAdCRUlKSU5HMRYwFAYDVQQKDA1DaGluYSBUZWxlY29tMQswCQYDVQQLDAJJ
VDEdMBsGA1UEAwwUZXNpbWFwcGxlLmNybS4xODkuY24wWTATBgcqhkjOPQIBBggq
hkjOPQMBBwNCAARl6YCMQt2aj3Q6uwXVOWRyIIaISS1TRQGLE/OIa40D39es0LCs
afvCd0CUg+5jpq3kxagv4mK70t0GsstHe+sco4HFMIHCMB0GA1UdDgQWBBSrH2V+
aobfgdlf9w4HUEHhsNMs6DAOBgNVHQ8BAf8EBAMCB4AwFAYDVR0RBA0wC4gJKwYB
BAGDg1kMMAwGA1UdEwEB/wQCMAAwMwYDVR0fBCwwKjAooCagJIYiaHR0cDovL2Ny
bC5jbmNhLm5ldC9lc2ltL2Njcy9hLmNybDAXBgNVHSABAf8EDTALMAkGB2eBEgEC
AQQwHwYDVR0jBBgwFoAU0++D/FA/nG7Et/auBVt/E3PUqx4wCgYIKoZIzj0EAwID
SQAwRgIhAIyr+y9XcTl6JxQQBmkxdEeYiJ34AqeOVcCGA3q+BbEnAiEArmajnXYl
ZpxPRHfr9SoXSOa4N3XUkvKitr4o6RzzaW4=
-----END CERTIFICATE-----
