Certificate:
    Data:
        Version: 3 (0x2)
        Serial Number:
            06:c0:80:40:08:ae:87:82:35:0d:f5:b8:01:85:d1:e7
        Signature Algorithm: ecdsa-with-SHA256
        Issuer: O=Symantec Corporation, CN=Symantec Corporation RSP Test Root CA - For Test Purposes Only
        Validity
            Not Before: May 14 00:00:00 2019 GMT
            Not After : May 13 23:59:59 2022 GMT
        Subject: CN=Google LLC DSauth Prod, O=Google LLC
        Subject Public Key Info:
            Public Key Algorithm: id-ecPublicKey
                Public-Key: (256 bit)
                pub:
                    04:c8:12:a2:94:1b:2b:7c:2c:66:59:f0:33:97:e9:
                    8a:0d:04:18:37:20:74:dd:36:65:9a:7f:49:67:e9:
                    a0:0b:6a:dd:f4:4a:12:dc:60:f7:7f:c0:cd:74:b4:
                    09:cd:b8:83:3b:9e:48:bb:e7:11:6c:be:07:66:ec:
                    da:5f:4e:94:c9
                ASN1 OID: prime256v1
                NIST CURVE: P-256
        X509v3 extensions:
            X509v3 Key Usage: critical
                Digital Signature
            X509v3 Subject Key Identifier: 
                68:26:C7:7F:56:4B:82:22:74:9E:A5:55:BD:46:A3:49:A3:57:3B:0D
            X509v3 Subject Alternative Name: 
                Registered ID:1.3.6.1.4.1.11129.6.1.4
            X509v3 Certificate Policies: critical
                Policy: 2.23.146.1.2.1.7
            X509v3 CRL Distribution Points: 
                Full Name:
                  URI:http://pki-crl.symauth.com/ca_a3dc2e3fea7708a11c889386d9d3a76f/LatestCRL.crl
            X509v3 Authority Key Identifier: 
                66:5A:14:33:D6:7C:1A:2C:5D:B8:B5:2C:96:7F:10:A0:57:BA:5C:B2
    Signature Algorithm: ecdsa-with-SHA256
    Signature Value:
        30:44:02:20:1e:cd:f2:a7:75:6b:cf:54:39:ab:96:43:82:6e:
        18:1e:b5:c0:37:da:c1:93:80:6a:e8:ac:6b:9b:b4:a1:a3:97:
        02:20:1f:bb:a1:da:74:4b:39:86:a7:22:43:9c:10:de:0d:9a:
        ec:88:8e:14:55:41:07:68:e0:55:37:1b:de:80:4c:5a
-----BEGIN CERTIFICATE-----
MIICfjCCAiWgAwIBAgIQBsCAQAiuh4I1DfW4AYXR5zAKBggqhkjOPQQDAjBoMR0w
GwYDVQQKExRTeW1hbnRlYyBDb3Jwb3JhdGlvbjFHMEUGA1UEAxM+U3ltYW50ZWMg
Q29ycG9yYXRpb24gUlNQIFRlc3QgUm9vdCBDQSAtIEZvciBUZXN0IFB1cnBvc2Vz
IE9ubHkwHhcNMTkwNTE0MDAwMDAwWhcNMjIwNTEzMjM1OTU5WjA2MR8wHQYDVQQD
DBZHb29nbGUgTExDIERTYXV0aCBQcm9kMRMwEQYDVQQKDApHb29nbGUgTExDMFkw
EwYHKoZIzj0CAQYIKoZIzj0DAQcDQgAEyBKilBsrfCxmWfAzl+mKDQQYNyB03TZl
mn9JZ+mgC2rd9EoS3GD3f8DNdLQJzbiDO55Iu+cRbL4HZuzaX06UyaOB4jCB3zAO
BgNVHQ8BAf8EBAMCB4AwHQYDVR0OBBYEFGgmx39WS4IidJ6lVb1Go0mjVzsNMBUG
A1UdEQQOMAyICisGAQQB1nkGAQQwFwYDVR0gAQH/BA0wCzAJBgdngRIBAgEHMF0G
A1UdHwRWMFQwUqBQoE6GTGh0dHA6Ly9wa2ktY3JsLnN5bWF1dGguY29tL2NhX2Ez
ZGMyZTNmZWE3NzA4YTExYzg4OTM4NmQ5ZDNhNzZmL0xhdGVzdENSTC5jcmwwHwYD
VR0jBBgwFoAUZloUM9Z8GixduLUsln8QoFe6XLIwCgYIKoZIzj0EAwIDRwAwRAIg
Hs3yp3Vrz1Q5q5ZDgm4YHrXAN9rBk4Bq6Kxrm7Sho5cCIB+7odp0SzmGpyJDnBDe
DZrsiI4UVUEHaOBVNxvegExa
-----END CERTIFICATE-----
