Certificate:
    Data:
        Version: 3 (0x2)
        Serial Number:
            63:4d:51:ee:24:da:95:72:a6:6a:e6:13:a8:86:f3:ec:7b:47:e5
        Signature Algorithm: ecdsa-with-SHA256
        Issuer: C=DE, OU=Mobile Security, O=Giesecke and Devrient GmbH, CN=SubMan V4.2 CI Google Pixel
        Validity
            Not Before: May  8 00:00:00 2019 GMT
            Not After : May  8 00:00:00 2022 GMT
        Subject: CN=Google LLC DSauth Prod, OU=RSP, O=Google LLC, L=Mountain View, ST=California, C=US
        Subject Public Key Info:
            Public Key Algorithm: id-ecPublicKey
                Public-Key: (256 bit)
                pub:
                    04:c8:12:a2:94:1b:2b:7c:2c:66:59:f0:33:97:e9:
                    8a:0d:04:18:37:20:74:dd:36:65:9a:7f:49:67:e9:
                    a0:0b:6a:dd:f4:4a:12:dc:60:f7:7f:c0:cd:74:b4:
                    09:cd:b8:83:3b:9e:48:bb:e7:11:6c:be:07:66:ec:
                    da:5f:4e:94:c9
                ASN1 OID: prime256v1
                NIST CURVE: P-256
        X509v3 extensions:
            X509v3 Authority Key Identifier: 
                B6:0F:0B:89:7F:D6:30:B8:8C:FE:D6:16:1F:8E:A8:08:C5:38:2A:C3
            X509v3 Subject Key Identifier: 
                68:26:C7:7F:56:4B:82:22:74:9E:A5:55:BD:46:A3:49:A3:57:3B:0D
            X509v3 Subject Alternative Name: 
                Registered ID:1.3.6.1.4.1.11129.6.1.4
            X509v3 Certificate Policies: critical
                Policy: 2.23.146.1.2.1.7
            X509v3 Key Usage: critical
                Digital Signature
    Signature Algorithm: ecdsa-with-SHA256
    Signature Value:
        30:44:02:20:7a:82:f8:75:b7:ed:cb:59:a6:c5:b8:b8:91:ad:
        03:5e:1b:bf:a0:e3:7b:02:33:90:52:a1:15:3a:fd:4f:02:4f:
        02:20:06:6f:01:1c:fd:bc:ea:71:76:2a:2c:22:44:a0:83:f0:
        ea:77:f5:29:5d:0f:a2:fd:ce:00:c4:9e:d1:b8:92:4d
-----BEGIN CERTIFICATE-----
MIICdDCCAhugAwIBAgITY01R7iTalXKmauYTqIbz7HtH5TAKBggqhkjOPQQDAjBy
MQswCQYDVQQGEwJERTEYMBYGA1UECwwPTW9iaWxlIFNlY3VyaXR5MSMwIQYDVQQK
DBpHaWVzZWNrZSBhbmQgRGV2cmllbnQgR21iSDEkMCIGA1UEAwwbU3ViTWFuIFY0
LjIgQ0kgR29vZ2xlIFBpeGVsMB4XDTE5MDUwODAwMDAwMFoXDTIyMDUwODAwMDAw
MFowfjEfMB0GA1UEAwwWR29vZ2xlIExMQyBEU2F1dGggUHJvZDEMMAoGA1UECwwD
UlNQMRMwEQYDVQQKDApHb29nbGUgTExDMRYwFAYDVQQHDA1Nb3VudGFpbiBWaWV3
MRMwEQYDVQQIDApDYWxpZm9ybmlhMQswCQYDVQQGEwJVUzBZMBMGByqGSM49AgEG
CCqGSM49AwEHA0IABMgSopQbK3wsZlnwM5fpig0EGDcgdN02ZZp/SWfpoAtq3fRK
Etxg93/AzXS0Cc24gzueSLvnEWy+B2bs2l9OlMmjgYMwgYAwHwYDVR0jBBgwFoAU
tg8LiX/WMLiM/tYWH46oCMU4KsMwHQYDVR0OBBYEFGgmx39WS4IidJ6lVb1Go0mj
VzsNMBUGA1UdEQQOMAyICisGAQQB1nkGAQQwFwYDVR0gAQH/BA0wCzAJBgdngRIB
AgEHMA4GA1UdDwEB/wQEAwIHgDAKBggqhkjOPQQDAgNHADBEAiB6gvh1t+3LWabF
uLiRrQNeG7+g43sCM5BSoRU6/U8CTwIgBm8BHP286nF2KiwiRKCD8Op39SldD6L9
zgDEntG4kk0=
-----END CERTIFICATE-----
