Certificate:
    Data:
        Version: 3 (0x2)
        Serial Number:
            4f:7c:45:ee:60:86:66:68:4e:ba:25:d4:cf:b9:41:3c
        Signature Algorithm: ecdsa-with-SHA256
        Issuer: O=GSM Association, CN=GSM Association - RSP2 Root CI1
        Validity
            Not Before: Dec  8 00:00:00 2021 GMT
            Not After : Dec  7 23:59:59 2031 GMT
        Subject: C=FR, L=Paris, O=IDEMIA, CN=Azure SM-DP 401
        Subject Public Key Info:
            Public Key Algorithm: id-ecPublicKey
                Public-Key: (256 bit)
                pub:
                    04:27:d3:87:46:85:1c:6c:1d:fd:7b:6b:2a:a0:9c:
                    6f:f7:78:85:5f:dd:a6:67:d7:9c:7a:e2:39:da:33:
                    94:36:b3:48:1a:cd:13:ca:ed:73:b1:84:7b:d5:b2:
                    24:d8:7a:18:4a:65:24:ef:95:58:49:ee:3c:da:c3:
                    c9:f8:49:c8:46
                ASN1 OID: prime256v1
                NIST CURVE: P-256
        X509v3 extensions:
            X509v3 Certificate Policies: critical
                Policy: 2.23.146.1.2.1.4
            X509v3 CRL Distribution Points: 
                Full Name:
                  URI:http://gsma-crl.symauth.com/offlineca/gsma-rsp2-root-ci1.crl
            X509v3 Key Usage: critical
                Digital Signature
            X509v3 Subject Alternative Name: 
                Registered ID:1.3.6.1.4.1.30703.836685.503.401.101
            X509v3 Subject Key Identifier: 
                6F:DD:00:16:F7:FB:B3:75:DF:9F:5B:4D:92:98:B7:A8:FE:33:06:95
            X509v3 Authority Key Identifier: 
                81:37:0F:51:25:D0:B1:D4:08:D4:C3:B2:32:E6:D2:5E:79:5B:EB:FB
    Signature Algorithm: ecdsa-with-SHA256
    Signature Value:
        30:45:02:20:36:96:ad:c4:4a:45:fb:1b:eb:e7:31:49:49:90:
        26:28:c3:09:e4:bc:14:f6:3e:e3:1f:63:a2:42:a6:95:f4:37:
        02:21:00:9a:f3:b2:62:61:20:e7:4a:cb:d3:30:14:7d:04:19:
        6a:25:2e:1b:0c:51:a1:5a:cc:d2:84:63:2b:de:80:a1:d9
-----BEGIN CERTIFICATE-----
MIICYzCCAgmgAwIBAgIQT3xF7mCGZmhOuiXUz7lBPDAKBggqhkjOPQQDAjBEMRgw
FgYDVQQKEw9HU00gQXNzb2NpYXRpb24xKDAmBgNVBAMTH0dTTSBBc3NvY2lhdGlv
biAtIFJTUDIgUm9vdCBDSTEwHhcNMjExMjA4MDAwMDAwWhcNMzExMjA3MjM1OTU5
WjBIMQswCQYDVQQGEwJGUjEOMAwGA1UEBwwFUGFyaXMxDzANBgNVBAoMBklERU1J
QTEYMBYGA1UEAwwPQXp1cmUgU00tRFAgNDAxMFkwEwYHKoZIzj0CAQYIKoZIzj0D
AQcDQgAEJ9OHRoUcbB39e2sqoJxv93iFX92mZ9eceuI52jOUNrNIGs0Tyu1zsYR7
1bIk2HoYSmUk75VYSe482sPJ+EnIRqOB2DCB1TAXBgNVHSABAf8EDTALMAkGB2eB
EgECAQQwTQYDVR0fBEYwRDBCoECgPoY8aHR0cDovL2dzbWEtY3JsLnN5bWF1dGgu
Y29tL29mZmxpbmVjYS9nc21hLXJzcDItcm9vdC1jaTEuY3JsMA4GA1UdDwEB/wQE
AwIHgDAbBgNVHREEFDASiBArBgEEAYHvb7OITYN3gxFlMB0GA1UdDgQWBBRv3QAW
9/uzdd+fW02SmLeo/jMGlTAfBgNVHSMEGDAWgBSBNw9RJdCx1AjUw7Iy5tJeeVvr
+zAKBggqhkjOPQQDAgNIADBFAiA2lq3ESkX7G+vnMUlJkCYowwnkvBT2PuMfY6JC
ppX0NwIhAJrzsmJhIOdKy9MwFH0EGWolLhsMUaFazNKEYyvegKHZ
-----END CERTIFICATE-----
