Certificate:
    Data:
        Version: 3 (0x2)
        Serial Number:
            74:15:e7:b1:b9:4d:00:ed:32:ce:73:60:ff:96:80:9e
        Signature Algorithm: ecdsa-with-SHA256
        Issuer: C=US, O=Entrust, Inc., OU=See www.entrust.net/legal-terms, OU=(c) 2016 Entrust, Inc. - for authorized use only, CN=Entrust eSIM Certification Authority
        Validity
            Not Before: Jun  3 17:28:28 2022 GMT
            Not After : Jun  3 17:28:28 2024 GMT
        Subject: C=FR, L=Courbevoie, O=IDEMIA France, CN=OT M-Connect DP, emailAddress=Connectivity_SRE@idemia.com
        Subject Public Key Info:
            Public Key Algorithm: id-ecPublicKey
                Public-Key: (256 bit)
                pub:
                    04:e1:a0:89:e7:6a:8e:78:7e:11:64:9c:6c:db:ef:
                    9f:9e:82:40:a1:7f:a4:b3:41:56:6e:5c:e2:81:28:
                    2f:c7:ea:ed:0b:63:8a:49:88:b5:11:e5:fb:2e:d8:
                    3b:2b:3a:65:5a:bb:db:31:b7:ac:b9:02:ee:9d:08:
                    4c:41:47:ca:d8
                ASN1 OID: prime256v1
                NIST CURVE: P-256
        X509v3 extensions:
            X509v3 Basic Constraints: critical
                CA:FALSE
            X509v3 Subject Key Identifier: 
                49:6F:AE:14:24:7C:A0:53:E4:17:19:50:B9:90:B8:27:0A:3E:6C:3E
            X509v3 Authority Key Identifier: 
                16:70:4B:7F:35:1E:36:07:F1:8C:4B:70:00:5C:3A:00:3D:FD:41:4A
            X509v3 CRL Distribution Points: 
                Full Name:
                  URI:http://crl.entrust.net/entesimca.crl
            X509v3 Subject Alternative Name: 
                Registered ID:1.3.6.1.4.1.30703.836685.503.402.101
            X509v3 Key Usage: critical
                Digital Signature
            X509v3 Certificate Policies: critical
                Policy: 2.23.146.1.2.1.4
    Signature Algorithm: ecdsa-with-SHA256
    Signature Value:
        30:45:02:20:17:74:9b:01:7d:be:94:4a:f5:9c:b4:28:07:19:
        54:c4:b0:6f:5a:5d:41:5b:45:ee:e7:f6:f3:a2:24:58:14:89:
        02:21:00:96:5d:f1:44:2b:8a:84:64:f4:97:9c:e8:95:7d:28:
        bd:db:c1:26:23:68:e4:8a:b1:66:fc:cd:60:0a:70:9a:8f
-----BEGIN CERTIFICATE-----
MIIDCDCCAq6gAwIBAgIQdBXnsblNAO0yznNg/5aAnjAKBggqhkjOPQQDAjCBuTEL
MAkGA1UEBhMCVVMxFjAUBgNVBAoTDUVudHJ1c3QsIEluYy4xKDAmBgNVBAsTH1Nl
ZSB3d3cuZW50cnVzdC5uZXQvbGVnYWwtdGVybXMxOTA3BgNVBAsTMChjKSAyMDE2
IEVudHJ1c3QsIEluYy4gLSBmb3IgYXV0aG9yaXplZCB1c2Ugb25seTEtMCsGA1UE
AxMkRW50cnVzdCBlU0lNIENlcnRpZmljYXRpb24gQXV0aG9yaXR5MB4XDTIyMDYw
MzE3MjgyOFoXDTI0MDYwMzE3MjgyOFowgYAxCzAJBgNVBAYTAkZSMRMwEQYDVQQH
EwpDb3VyYmV2b2llMRYwFAYDVQQKEw1JREVNSUEgRnJhbmNlMRgwFgYDVQQDEw9P
VCBNLUNvbm5lY3QgRFAxKjAoBgkqhkiG9w0BCQEWG0Nvbm5lY3Rpdml0eV9TUkVA
aWRlbWlhLmNvbTBZMBMGByqGSM49AgEGCCqGSM49AwEHA0IABOGgiedqjnh+EWSc
bNvvn56CQKF/pLNBVm5c4oEoL8fq7QtjikmItRHl+y7YOys6ZVq72zG3rLkC7p0I
TEFHytijgc4wgcswDAYDVR0TAQH/BAIwADAdBgNVHQ4EFgQUSW+uFCR8oFPkFxlQ
uZC4Jwo+bD4wHwYDVR0jBBgwFoAUFnBLfzUeNgfxjEtwAFw6AD39QUowNQYDVR0f
BC4wLDAqoCigJoYkaHR0cDovL2NybC5lbnRydXN0Lm5ldC9lbnRlc2ltY2EuY3Js
MBsGA1UdEQQUMBKIECsGAQQBge9vs4hNg3eDEmUwDgYDVR0PAQH/BAQDAgeAMBcG
A1UdIAEB/wQNMAswCQYHZ4ESAQIBBDAKBggqhkjOPQQDAgNIADBFAiAXdJsBfb6U
SvWctCgHGVTEsG9aXUFbRe7n9vOiJFgUiQIhAJZd8UQrioRk9Jec6JV9KL3bwSYj
aOSKsWb8zWAKcJqP
-----END CERTIFICATE-----
