Certificate:
    Data:
        Version: 3 (0x2)
        Serial Number:
            f9:68:e4:fd:9e:3d:53:be:43:28:a1:e0:dc:7d:53
        Signature Algorithm: ecdsa-with-SHA256
        Issuer:
            C = US
            O = Entrust, Inc.
            OU = See www.entrust.net/legal-terms
            OU = (c) 2016 Entrust, Inc. - for authorized use only
            CN = Entrust eSIM Certification Authority
        Validity
            Not Before: Jan  6 22:56:33 2022 GMT
            Not After : Jan  6 22:56:33 2024 GMT
        Subject:
            C = FR
            L = Courbevoie
            O = IDEMIA France
            CN = OT M-Connect EWA DP
            emailAddress = Connectivity_SRE@idemia.com
        Subject Public Key Info:
            Public Key Algorithm: id-ecPublicKey
                Public-Key: (256 bit)
                pub:
                    04:29:41:f9:d5:29:a9:f0:62:8b:21:6a:2e:e3:62:
                    dc:97:04:74:bb:31:3e:d2:de:0c:cf:b7:a8:a8:fb:
                    5f:85:49:8a:8a:5c:4d:75:71:3a:70:4c:af:d7:4b:
                    52:b9:f9:c0:86:5c:5e:57:1f:01:c6:d6:bc:38:de:
                    db:d0:b5:62:31
                ASN1 OID: prime256v1
                NIST CURVE: P-256
        X509v3 extensions:
            X509v3 Basic Constraints: critical
                CA:FALSE
            X509v3 Subject Key Identifier: 
                EE:B7:52:FD:58:B7:6F:0A:C3:8F:B9:BA:D8:FA:EC:36:EE:64:B2:A6
            X509v3 Authority Key Identifier: 
                16:70:4B:7F:35:1E:36:07:F1:8C:4B:70:00:5C:3A:00:3D:FD:41:4A
            X509v3 CRL Distribution Points: 
                Full Name:
                  URI:http://crl.entrust.net/entesimca.crl
            X509v3 Subject Alternative Name: 
                Registered ID:1.3.6.1.4.1.30703.836685.503.101.101
            X509v3 Key Usage: critical
                Digital Signature
            X509v3 Certificate Policies: critical
                Policy: 2.23.146.1.2.1.4
    Signature Algorithm: ecdsa-with-SHA256
    Signature Value:
        30:44:02:20:6f:ef:71:0a:59:be:7d:dc:ca:cb:60:70:f3:2c:
        db:df:04:96:cd:33:51:ef:12:4e:4f:6c:da:a6:2c:a0:74:36:
        02:20:7d:36:40:b5:a2:04:7d:2a:53:6a:13:5d:a5:57:6f:bd:
        03:4f:ac:cb:95:3d:7e:7f:9c:26:68:c7:d0:c5:81:f9
-----BEGIN CERTIFICATE-----
MIIDCjCCArGgAwIBAgIQAPlo5P2ePVO+Qyih4Nx9UzAKBggqhkjOPQQDAjCBuTEL
MAkGA1UEBhMCVVMxFjAUBgNVBAoTDUVudHJ1c3QsIEluYy4xKDAmBgNVBAsTH1Nl
ZSB3d3cuZW50cnVzdC5uZXQvbGVnYWwtdGVybXMxOTA3BgNVBAsTMChjKSAyMDE2
IEVudHJ1c3QsIEluYy4gLSBmb3IgYXV0aG9yaXplZCB1c2Ugb25seTEtMCsGA1UE
AxMkRW50cnVzdCBlU0lNIENlcnRpZmljYXRpb24gQXV0aG9yaXR5MB4XDTIyMDEw
NjIyNTYzM1oXDTI0MDEwNjIyNTYzM1owgYQxCzAJBgNVBAYTAkZSMRMwEQYDVQQH
EwpDb3VyYmV2b2llMRYwFAYDVQQKEw1JREVNSUEgRnJhbmNlMRwwGgYDVQQDExNP
VCBNLUNvbm5lY3QgRVdBIERQMSowKAYJKoZIhvcNAQkBFhtDb25uZWN0aXZpdHlf
U1JFQGlkZW1pYS5jb20wWTATBgcqhkjOPQIBBggqhkjOPQMBBwNCAAQpQfnVKanw
Yoshai7jYtyXBHS7MT7S3gzPt6io+1+FSYqKXE11cTpwTK/XS1K5+cCGXF5XHwHG
1rw43tvQtWIxo4HNMIHKMAwGA1UdEwEB/wQCMAAwHQYDVR0OBBYEFO63Uv1Yt28K
w4+5utj67DbuZLKmMB8GA1UdIwQYMBaAFBZwS381HjYH8YxLcABcOgA9/UFKMDUG
A1UdHwQuMCwwKqAooCaGJGh0dHA6Ly9jcmwuZW50cnVzdC5uZXQvZW50ZXNpbWNh
LmNybDAaBgNVHREEEzARiA8rBgEEAYHvb7OITYN3ZWUwDgYDVR0PAQH/BAQDAgeA
MBcGA1UdIAEB/wQNMAswCQYHZ4ESAQIBBDAKBggqhkjOPQQDAgNHADBEAiBv73EK
Wb593MrLYHDzLNvfBJbNM1HvEk5PbNqmLKB0NgIgfTZAtaIEfSpTahNdpVdvvQNP
rMuVPX5/nCZox9DFgfk=
-----END CERTIFICATE-----
