Certificate:
    Data:
        Version: 3 (0x2)
        Serial Number:
            30:aa:df:cd:ce:6f:42:9c:bc:9f:d8:e3:a9:12:12:23
        Signature Algorithm: ecdsa-with-SHA256
        Issuer: O=GSM Association, CN=GSM Association - RSP2 Root CI1
        Validity
            Not Before: Feb  8 00:00:00 2023 GMT
            Not After : Feb  7 23:59:59 2026 GMT
        Subject: C=US, L=Virginia, O=Thales SA, CN=Google SMDS UE4 LAB
        Subject Public Key Info:
            Public Key Algorithm: id-ecPublicKey
                Public-Key: (256 bit)
                pub:
                    04:3e:bc:42:17:9b:d8:b6:5e:3b:45:34:86:f3:9a:
                    1a:d5:f2:27:fc:ad:17:c0:21:c5:d9:0d:3e:3b:45:
                    ed:bb:16:44:3c:45:70:6d:9f:a4:aa:52:37:11:b9:
                    7a:5f:5b:7c:18:a0:15:a3:1e:b6:38:27:f9:fe:da:
                    3b:13:68:d3:4a
                ASN1 OID: prime256v1
                NIST CURVE: P-256
        X509v3 extensions:
            X509v3 Subject Key Identifier: 
                85:94:D0:9E:62:01:2A:3B:75:C9:0A:D5:EF:63:6A:F1:04:27:5E:71
            X509v3 Certificate Policies: critical
                Policy: 2.23.146.1.2.1.7
            X509v3 CRL Distribution Points: 
                Full Name:
                  URI:http://gsma-crl.symauth.com/offlineca/gsma-rsp2-root-ci1.crl
            X509v3 Key Usage: critical
                Digital Signature
            X509v3 Subject Alternative Name: 
                Registered ID:1.3.6.1.4.1.31746.1.220.300.110
            X509v3 Authority Key Identifier: 
                81:37:0F:51:25:D0:B1:D4:08:D4:C3:B2:32:E6:D2:5E:79:5B:EB:FB
    Signature Algorithm: ecdsa-with-SHA256
    Signature Value:
        30:45:02:21:00:d0:f5:a5:e4:0a:7a:25:b9:74:31:7a:d9:52:
        5e:3e:43:e7:49:97:ff:e2:01:24:9f:ad:a0:d8:dc:1f:d1:ff:
        e0:02:20:21:c4:92:44:ed:79:4f:18:bc:26:f4:f0:d5:de:77:
        e3:a1:4a:0a:34:00:99:9e:92:d6:ac:05:01:69:e7:0f:b3
-----BEGIN CERTIFICATE-----
MIICazCCAhGgAwIBAgIQMKrfzc5vQpy8n9jjqRISIzAKBggqhkjOPQQDAjBEMRgw
FgYDVQQKEw9HU00gQXNzb2NpYXRpb24xKDAmBgNVBAMTH0dTTSBBc3NvY2lhdGlv
biAtIFJTUDIgUm9vdCBDSTEwHhcNMjMwMjA4MDAwMDAwWhcNMjYwMjA3MjM1OTU5
WjBSMQswCQYDVQQGEwJVUzERMA8GA1UEBwwIVmlyZ2luaWExEjAQBgNVBAoMCVRo
YWxlcyBTQTEcMBoGA1UEAwwTR29vZ2xlIFNNRFMgVUU0IExBQjBZMBMGByqGSM49
AgEGCCqGSM49AwEHA0IABD68Qheb2LZeO0U0hvOaGtXyJ/ytF8AhxdkNPjtF7bsW
RDxFcG2fpKpSNxG5el9bfBigFaMetjgn+f7aOxNo00qjgdYwgdMwHQYDVR0OBBYE
FIWU0J5iASo7dckK1e9javEEJ15xMBcGA1UdIAEB/wQNMAswCQYHZ4ESAQIBBzBN
BgNVHR8ERjBEMEKgQKA+hjxodHRwOi8vZ3NtYS1jcmwuc3ltYXV0aC5jb20vb2Zm
bGluZWNhL2dzbWEtcnNwMi1yb290LWNpMS5jcmwwDgYDVR0PAQH/BAQDAgeAMBkG
A1UdEQQSMBCIDisGAQQBgfgCAYFcgixuMB8GA1UdIwQYMBaAFIE3D1El0LHUCNTD
sjLm0l55W+v7MAoGCCqGSM49BAMCA0gAMEUCIQDQ9aXkCnoluXQxetlSXj5D50mX
/+IBJJ+toNjcH9H/4AIgIcSSRO15Txi8JvTw1d5346FKCjQAmZ6S1qwFAWnnD7M=
-----END CERTIFICATE-----
