Certificate:
    Data:
        Version: 3 (0x2)
        Serial Number:
            31:c2:f0:f6:17:f3:c2:36:64:1d:dc:69:5a:bc:3e:b6
        Signature Algorithm: ecdsa-with-SHA256
        Issuer:
            C = US
            O = Entrust, Inc.
            OU = See www.entrust.net/legal-terms
            OU = (c) 2016 Entrust, Inc. - for authorized use only
            CN = Entrust eSIM Certification Authority
        Validity
            Not Before: Sep  3 21:43:47 2024 GMT
            Not After : Sep  3 21:43:46 2026 GMT
        Subject:
            C = DE
            ST = Bayern
            L = Munich
            O = Giesecke & Devrient GmbH
            CN = AirOn V4 DP PROD/emailAddress=kai.scholl@gi-de.com
            emailAddress = kai.scholl@gi-de.com
        Subject Public Key Info:
            Public Key Algorithm: id-ecPublicKey
                Public-Key: (256 bit)
                pub:
                    04:29:09:25:24:1f:1c:11:a0:fc:b5:1d:09:df:63:
                    e8:0d:07:0f:51:6b:9b:ae:bd:07:b2:e4:c9:b6:85:
                    d6:91:f4:42:c4:0a:13:28:15:be:38:d1:7a:41:d8:
                    87:92:7c:58:53:83:9b:26:84:f1:0a:3c:38:59:1b:
                    bd:ee:ce:6f:51
                ASN1 OID: prime256v1
                NIST CURVE: P-256
        X509v3 extensions:
            X509v3 Basic Constraints: critical
                CA:FALSE
            X509v3 Subject Key Identifier: 
                54:02:D2:37:69:E3:2D:E4:40:D1:45:BD:FF:CA:D7:36:90:F9:F2:8E
            X509v3 Authority Key Identifier: 
                16:70:4B:7F:35:1E:36:07:F1:8C:4B:70:00:5C:3A:00:3D:FD:41:4A
            X509v3 CRL Distribution Points: 
                Full Name:
                  URI:http://crl.entrust.net/entesimca.crl
            X509v3 Subject Alternative Name: 
                Registered ID:1.3.6.1.4.1.11791.104.90.3.4
            X509v3 Key Usage: critical
                Digital Signature
            X509v3 Certificate Policies: critical
                Policy: 2.23.146.1.2.1.4
    Signature Algorithm: ecdsa-with-SHA256
    Signature Value:
        30:45:02:20:0b:be:9f:f1:db:a1:80:3b:24:5f:57:61:f8:3a:
        76:29:07:d1:32:bc:cf:1e:e3:dd:58:f2:b3:d4:fd:35:07:db:
        02:21:00:f8:00:37:5c:da:e5:e0:3e:1a:f6:b2:cd:a2:f5:42:
        d1:b0:69:d9:c3:11:af:77:d2:b3:21:2b:54:94:83:4e:f4
-----BEGIN CERTIFICATE-----
MIIDNzCCAt2gAwIBAgIQMcLw9hfzwjZkHdxpWrw+tjAKBggqhkjOPQQDAjCBuTEL
MAkGA1UEBhMCVVMxFjAUBgNVBAoTDUVudHJ1c3QsIEluYy4xKDAmBgNVBAsTH1Nl
ZSB3d3cuZW50cnVzdC5uZXQvbGVnYWwtdGVybXMxOTA3BgNVBAsTMChjKSAyMDE2
IEVudHJ1c3QsIEluYy4gLSBmb3IgYXV0aG9yaXplZCB1c2Ugb25seTEtMCsGA1UE
AxMkRW50cnVzdCBlU0lNIENlcnRpZmljYXRpb24gQXV0aG9yaXR5MB4XDTI0MDkw
MzIxNDM0N1oXDTI2MDkwMzIxNDM0NlowgbQxCzAJBgNVBAYTAkRFMQ8wDQYDVQQI
EwZCYXllcm4xDzANBgNVBAcTBk11bmljaDEhMB8GA1UECgwYR2llc2Vja2UgJiBE
ZXZyaWVudCBHbWJIMTswOQYDVQQDDDJBaXJPbiBWNCBEUCBQUk9EL2VtYWlsQWRk
cmVzcz1rYWkuc2Nob2xsQGdpLWRlLmNvbTEjMCEGCSqGSIb3DQEJARYUa2FpLnNj
aG9sbEBnaS1kZS5jb20wWTATBgcqhkjOPQIBBggqhkjOPQMBBwNCAAQpCSUkHxwR
oPy1HQnfY+gNBw9Ra5uuvQey5Mm2hdaR9ELEChMoFb440XpB2IeSfFhTg5smhPEK
PDhZG73uzm9Ro4HJMIHGMAwGA1UdEwEB/wQCMAAwHQYDVR0OBBYEFFQC0jdp4y3k
QNFFvf/K1zaQ+fKOMB8GA1UdIwQYMBaAFBZwS381HjYH8YxLcABcOgA9/UFKMDUG
A1UdHwQuMCwwKqAooCaGJGh0dHA6Ly9jcmwuZW50cnVzdC5uZXQvZW50ZXNpbWNh
LmNybDAWBgNVHREEDzANiAsrBgEEAdwPaFoDBDAOBgNVHQ8BAf8EBAMCB4AwFwYD
VR0gAQH/BA0wCzAJBgdngRIBAgEEMAoGCCqGSM49BAMCA0gAMEUCIAu+n/HboYA7
JF9XYfg6dikH0TK8zx7j3Vjys9T9NQfbAiEA+AA3XNrl4D4a9rLNovVC0bBp2cMR
r3fSsyErVJSDTvQ=
-----END CERTIFICATE-----
