Certificate:
    Data:
        Version: 3 (0x2)
        Serial Number: 256 (0x100)
        Signature Algorithm: ecdsa-with-SHA256
        Issuer: C=IT, O=RSPTEST, OU=TESTCERT, CN=GSMA Test CI
        Validity
            Not Before: Mar 28 00:00:00 2018 GMT
            Not After : Mar 27 00:00:00 2021 GMT
        Subject: CN=NXP Test SM-DP+ Authentication, O=NXP Austria, C=AT
        Subject Public Key Info:
            Public Key Algorithm: id-ecPublicKey
                Public-Key: (256 bit)
                pub:
                    04:f4:3e:bc:00:b0:12:03:44:53:30:18:5c:db:33:
                    23:5f:40:39:03:80:b8:f8:00:7a:c4:9b:7f:b0:84:
                    cd:d4:50:f0:0b:47:ea:7d:59:8a:f1:7d:b1:80:6c:
                    68:d9:ba:aa:87:73:64:78:e5:3e:01:37:5b:37:0c:
                    40:de:69:0b:0f
                ASN1 OID: prime256v1
                NIST CURVE: P-256
        X509v3 extensions:
            X509v3 Subject Key Identifier: 
                96:D6:A3:13:49:F5:DC:F3:97:84:CA:A1:F8:B7:84:15:AA:15:0C:23
            X509v3 Authority Key Identifier: 
                F5:41:72:BD:F9:8A:95:D6:5C:BE:B8:8A:38:A1:C1:1D:80:0A:85:C3
            X509v3 Key Usage: critical
                Digital Signature
            X509v3 Certificate Policies: critical
                Policy: 2.23.146.1.2.1.4
            X509v3 CRL Distribution Points: 
                Full Name:
                  URI:http://ci.test.gsma.com/CRL-A.crl
                Full Name:
                  URI:http://ci.test.gsma.com/CRL-B.crl
            X509v3 Subject Alternative Name: 
                Registered ID:2.999.10
    Signature Algorithm: ecdsa-with-SHA256
    Signature Value:
        30:46:02:21:00:c8:90:39:c8:47:cc:26:af:24:6c:e4:0f:7c:
        0b:7b:2a:43:c0:ea:e6:98:c3:e5:b9:19:b3:bf:15:85:26:cb:
        50:02:21:00:e3:f9:4b:e4:17:24:3c:ad:f6:02:e4:86:84:75:
        bf:58:bf:83:2a:23:53:4b:ff:5e:26:d2:38:ee:89:36:7e:74
-----BEGIN CERTIFICATE-----
MIICYDCCAgWgAwIBAgICAQAwCgYIKoZIzj0EAwIwSTELMAkGA1UEBhMCSVQxEDAO
BgNVBAoMB1JTUFRFU1QxETAPBgNVBAsMCFRFU1RDRVJUMRUwEwYDVQQDDAxHU01B
IFRlc3QgQ0kwHhcNMTgwMzI4MDAwMDAwWhcNMjEwMzI3MDAwMDAwWjBMMScwJQYD
VQQDDB5OWFAgVGVzdCBTTS1EUCsgQXV0aGVudGljYXRpb24xFDASBgNVBAoMC05Y
UCBBdXN0cmlhMQswCQYDVQQGEwJBVDBZMBMGByqGSM49AgEGCCqGSM49AwEHA0IA
BPQ+vACwEgNEUzAYXNszI19AOQOAuPgAesSbf7CEzdRQ8AtH6n1ZivF9sYBsaNm6
qodzZHjlPgE3WzcMQN5pCw+jgdkwgdYwHQYDVR0OBBYEFJbWoxNJ9dzzl4TKofi3
hBWqFQwjMB8GA1UdIwQYMBaAFPVBcr35ipXWXL64ijihwR2ACoXDMA4GA1UdDwEB
/wQEAwIHgDAXBgNVHSABAf8EDTALMAkGB2eBEgECAQQwWwYDVR0fBFQwUjAnoCWg
I4YhaHR0cDovL2NpLnRlc3QuZ3NtYS5jb20vQ1JMLUEuY3JsMCegJaAjhiFodHRw
Oi8vY2kudGVzdC5nc21hLmNvbS9DUkwtQi5jcmwwDgYDVR0RBAcwBYgDiDcKMAoG
CCqGSM49BAMCA0kAMEYCIQDIkDnIR8wmryRs5A98C3sqQ8Dq5pjD5bkZs78VhSbL
UAIhAOP5S+QXJDyt9gLkhoR1v1i/gyojU0v/XibSOO6JNn50
-----END CERTIFICATE-----
