Certificate:
    Data:
        Version: 3 (0x2)
        Serial Number: 112502 (0x1b776)
        Signature Algorithm: ecdsa-with-SHA256
        Issuer: C=CN, ST=BEIJING, L=BEIJING, OU=CTTL, O=CAICT, CN=Taier eSIM Root CA - NISTP256
        Validity
            Not Before: Nov  6 01:08:51 2023 GMT
            Not After : Nov  6 01:08:51 2025 GMT
        Subject: C=CN, OU=eSIM Project Department, O=CMCC, CN=esim.yhdzd.chinamobile.com
        Subject Public Key Info:
            Public Key Algorithm: id-ecPublicKey
                Public-Key: (256 bit)
                pub:
                    04:06:4d:d4:32:59:c0:ae:01:f6:8a:bc:0e:d4:57:
                    d8:67:3f:0d:5e:0e:5d:11:d5:70:04:d6:eb:1b:ca:
                    bf:e1:7a:fd:78:35:7d:43:15:36:e0:eb:c6:f1:a0:
                    bd:4d:bd:69:61:bd:13:11:f7:ee:9f:92:72:ae:cd:
                    b7:b7:cc:f5:2c
                ASN1 OID: prime256v1
                NIST CURVE: P-256
        X509v3 extensions:
            X509v3 Authority Key Identifier: 
                14:80:30:FC:24:6C:02:FF:22:21:06:12:5A:8D:6B:DA:99:0A:FB:E9
            X509v3 Subject Key Identifier: 
                0F:93:0D:62:02:09:9D:9D:4A:7A:88:E5:72:62:34:B3:C3:32:FD:C0
            X509v3 Key Usage: critical
                Digital Signature
            X509v3 Certificate Policies: critical
                Policy: 2.23.146.1.2.1.4
            X509v3 Subject Alternative Name: 
                Registered ID:1.3.6.1.4.1.28357.100.3
            X509v3 CRL Distribution Points: 
                Full Name:
                  URI:http://crl.uni-ca.com.cn/download/n1.crl
                Full Name:
                  URI:http://crl.uni-ca.com.cn/download/n2.crl
    Signature Algorithm: ecdsa-with-SHA256
    Signature Value:
        30:45:02:21:00:c1:ee:bb:e7:20:bd:6d:78:f4:04:6c:31:28:
        7e:8a:4b:1a:05:b9:7e:cc:3c:f5:78:66:50:51:df:af:d9:bc:
        af:02:20:03:3b:46:3e:42:0f:93:9c:f9:3e:6b:f6:08:ac:22:
        f5:f1:33:68:c8:28:ec:3e:d8:61:a1:7c:88:60:8c:c5:7a
-----BEGIN CERTIFICATE-----
MIICuzCCAmGgAwIBAgIDAbd2MAoGCCqGSM49BAMCMHgxCzAJBgNVBAYTAkNOMRAw
DgYDVQQIDAdCRUlKSU5HMRAwDgYDVQQHDAdCRUlKSU5HMQ0wCwYDVQQLDARDVFRM
MQ4wDAYDVQQKDAVDQUlDVDEmMCQGA1UEAwwdVGFpZXIgZVNJTSBSb290IENBIC0g
TklTVFAyNTYwHhcNMjMxMTA2MDEwODUxWhcNMjUxMTA2MDEwODUxWjBjMQswCQYD
VQQGEwJDTjEgMB4GA1UECwwXZVNJTSBQcm9qZWN0IERlcGFydG1lbnQxDTALBgNV
BAoMBENNQ0MxIzAhBgNVBAMMGmVzaW0ueWhkemQuY2hpbmFtb2JpbGUuY29tMFkw
EwYHKoZIzj0CAQYIKoZIzj0DAQcDQgAEBk3UMlnArgH2irwO1FfYZz8NXg5dEdVw
BNbrG8q/4Xr9eDV9QxU24OvG8aC9Tb1pYb0TEffun5Jyrs23t8z1LKOB7jCB6zAf
BgNVHSMEGDAWgBQUgDD8JGwC/yIhBhJajWvamQr76TAdBgNVHQ4EFgQUD5MNYgIJ
nZ1KeojlcmI0s8My/cAwDgYDVR0PAQH/BAQDAgeAMBcGA1UdIAEB/wQNMAswCQYH
Z4ESAQIBBDAVBgNVHREEDjAMiAorBgEEAYHdRWQDMGkGA1UdHwRiMGAwLqAsoCqG
KGh0dHA6Ly9jcmwudW5pLWNhLmNvbS5jbi9kb3dubG9hZC9uMS5jcmwwLqAsoCqG
KGh0dHA6Ly9jcmwudW5pLWNhLmNvbS5jbi9kb3dubG9hZC9uMi5jcmwwCgYIKoZI
zj0EAwIDSAAwRQIhAMHuu+cgvW149ARsMSh+iksaBbl+zDz1eGZQUd+v2byvAiAD
O0Y+Qg+TnPk+a/YIrCL18TNoyCjsPthhoXyIYIzFeg==
-----END CERTIFICATE-----
