Certificate:
    Data:
        Version: 3 (0x2)
        Serial Number: 117645 (0x1cb8d)
        Signature Algorithm: ecdsa-with-SHA256
        Issuer: C=CN, ST=JILIN, L=CHANGCHUN, OU=CUCA, O=CU, CN=China Unicom eSIM Root CA
        Validity
            Not Before: Dec 20 06:18:26 2022 GMT
            Not After : Dec 20 06:18:26 2024 GMT
        Subject: C=CN, OU=eSIM Project Department, O=CMCC, CN=esim.yhdzd.chinamobile.com
        Subject Public Key Info:
            Public Key Algorithm: id-ecPublicKey
                Public-Key: (256 bit)
                pub:
                    04:17:fc:ec:ba:be:2d:9d:a8:9a:d2:16:ba:51:53:
                    49:c9:86:7d:01:06:07:91:fc:b5:3a:87:51:04:10:
                    d1:c5:fc:e8:f9:1c:4f:11:0a:7a:bd:85:ac:d1:b0:
                    86:09:83:43:92:de:32:8f:66:1f:66:c4:8e:dd:54:
                    3f:7f:15:1b:4b
                ASN1 OID: prime256v1
                NIST CURVE: P-256
        X509v3 extensions:
            X509v3 Authority Key Identifier: 
                16:B5:D1:60:48:E3:EA:02:BD:4B:60:6E:5F:77:A4:BF:20:80:8D:83
            X509v3 Subject Key Identifier: 
                A8:77:83:B5:35:1C:1D:D1:B4:C5:4B:3A:E9:95:BD:65:3E:AC:3E:A7
            X509v3 Key Usage: critical
                Digital Signature
            X509v3 Certificate Policies: critical
                Policy: 2.23.146.1.2.1.4
            X509v3 Subject Alternative Name: 
                Registered ID:1.3.6.1.4.1.28357.100.3
            X509v3 CRL Distribution Points: 
                Full Name:
                  URI:http://esimcrl.uni-ca.com.cn:6666/download/n1.crl
                Full Name:
                  URI:http://esimcrl.uni-ca.com.cn:6666/download/n2.crl
    Signature Algorithm: ecdsa-with-SHA256
    Signature Value:
        30:44:02:20:47:40:4a:af:df:83:5d:23:e1:c8:e2:d9:da:96:
        50:3f:d2:d8:79:73:23:fa:f3:c2:38:79:eb:84:37:d9:12:5b:
        02:20:47:3f:06:27:75:03:51:2d:50:fd:f5:8d:32:88:7c:dd:
        4c:fa:13:6d:89:25:e9:e1:ef:57:d1:b5:13:7b:df:b5
-----BEGIN CERTIFICATE-----
MIICxjCCAm2gAwIBAgIDAcuNMAoGCCqGSM49BAMCMHExCzAJBgNVBAYTAkNOMQ4w
DAYDVQQIEwVKSUxJTjESMBAGA1UEBxMJQ0hBTkdDSFVOMQ0wCwYDVQQLEwRDVUNB
MQswCQYDVQQKEwJDVTEiMCAGA1UEAxMZQ2hpbmEgVW5pY29tIGVTSU0gUm9vdCBD
QTAeFw0yMjEyMjAwNjE4MjZaFw0yNDEyMjAwNjE4MjZaMGMxCzAJBgNVBAYTAkNO
MSAwHgYDVQQLExdlU0lNIFByb2plY3QgRGVwYXJ0bWVudDENMAsGA1UEChMEQ01D
QzEjMCEGA1UEAxMaZXNpbS55aGR6ZC5jaGluYW1vYmlsZS5jb20wWTATBgcqhkjO
PQIBBggqhkjOPQMBBwNCAAQX/Oy6vi2dqJrSFrpRU0nJhn0BBgeR/LU6h1EEENHF
/Oj5HE8RCnq9hazRsIYJg0OS3jKPZh9mxI7dVD9/FRtLo4IBADCB/TAfBgNVHSME
GDAWgBQWtdFgSOPqAr1LYG5fd6S/IICNgzAdBgNVHQ4EFgQUqHeDtTUcHdG0xUs6
6ZW9ZT6sPqcwDgYDVR0PAQH/BAQDAgeAMBcGA1UdIAEB/wQNMAswCQYHZ4ESAQIB
BDAVBgNVHREEDjAMiAorBgEEAYHdRWQDMHsGA1UdHwR0MHIwN6A1oDOGMWh0dHA6
Ly9lc2ltY3JsLnVuaS1jYS5jb20uY246NjY2Ni9kb3dubG9hZC9uMS5jcmwwN6A1
oDOGMWh0dHA6Ly9lc2ltY3JsLnVuaS1jYS5jb20uY246NjY2Ni9kb3dubG9hZC9u
Mi5jcmwwCgYIKoZIzj0EAwIDRwAwRAIgR0BKr9+DXSPhyOLZ2pZQP9LYeXMj+vPC
OHnrhDfZElsCIEc/Bid1A1EtUP31jTKIfN1M+hNtiSXp4e9X0bUTe9+1
-----END CERTIFICATE-----
