Certificate:
    Data:
        Version: 3 (0x2)
        Serial Number: 101305 (0x18bb9)
        Signature Algorithm: ecdsa-with-SHA256
        Issuer: C=CN, O=CMCA, CN=CMCA eSIM Root CA_NIST
        Validity
            Not Before: Sep 16 02:37:50 2017 GMT
            Not After : Sep 16 02:37:50 2027 GMT
        Subject: C=CN, O=CMCC, OU=eSIM Project Department, CN=esim.yhdzd.chinamobile.com
        Subject Public Key Info:
            Public Key Algorithm: id-ecPublicKey
                Public-Key: (256 bit)
                pub:
                    04:99:aa:21:09:63:61:7c:bf:d1:14:cd:5a:1d:83:
                    64:97:c0:9c:d8:30:db:68:9c:cf:02:21:3e:9c:e7:
                    8e:04:d0:06:d1:2e:7e:2a:cd:44:2c:c3:99:5a:75:
                    75:7e:60:6e:b1:a7:a0:58:e7:69:a2:7d:86:c5:91:
                    12:b9:00:a8:f8
                ASN1 OID: prime256v1
                NIST CURVE: P-256
        X509v3 extensions:
            X509v3 Authority Key Identifier: 
                CD:F6:D1:C0:A7:B0:7F:98:A8:61:B6:E3:78:B8:2F:64:8D:99:66:3E
            X509v3 Subject Key Identifier: 
                98:07:24:A4:B5:7F:B4:26:48:6E:84:B6:44:E3:1A:48:7E:54:7F:96
            X509v3 Key Usage: critical
                Digital Signature
            X509v3 Certificate Policies: critical
                Policy: 2.23.146.1.2.1.4
            X509v3 Subject Alternative Name: 
                Registered ID:1.3.6.1.4.1.28357.100.3
            X509v3 CRL Distribution Points: 
                Full Name:
                  URI:http://221.176.65.55:8081/crldownload/nA.crl
                Full Name:
                  URI:http://221.176.65.55:8081/crldownload/nB.crl
    Signature Algorithm: ecdsa-with-SHA256
    Signature Value:
        30:45:02:20:69:36:77:34:9e:7e:8a:31:a6:3e:87:d7:5c:ed:
        38:56:c0:b5:c4:c9:25:45:43:36:e3:ba:f9:15:30:34:95:c9:
        02:21:00:d2:0d:2a:5f:1e:2f:89:84:dc:7d:bf:f5:f6:9b:9a:
        14:c9:a2:56:9c:e1:30:66:e2:b2:13:0b:b6:80:71:2e:d2
-----BEGIN CERTIFICATE-----
MIICiDCCAi6gAwIBAgIDAYu5MAoGCCqGSM49BAMCMD0xCzAJBgNVBAYTAkNOMQ0w
CwYDVQQKDARDTUNBMR8wHQYDVQQDDBZDTUNBIGVTSU0gUm9vdCBDQV9OSVNUMB4X
DTE3MDkxNjAyMzc1MFoXDTI3MDkxNjAyMzc1MFowYzELMAkGA1UEBhMCQ04xDTAL
BgNVBAoMBENNQ0MxIDAeBgNVBAsMF2VTSU0gUHJvamVjdCBEZXBhcnRtZW50MSMw
IQYDVQQDDBplc2ltLnloZHpkLmNoaW5hbW9iaWxlLmNvbTBZMBMGByqGSM49AgEG
CCqGSM49AwEHA0IABJmqIQljYXy/0RTNWh2DZJfAnNgw22iczwIhPpznjgTQBtEu
firNRCzDmVp1dX5gbrGnoFjnaaJ9hsWRErkAqPijgfYwgfMwHwYDVR0jBBgwFoAU
zfbRwKewf5ioYbbjeLgvZI2ZZj4wHQYDVR0OBBYEFJgHJKS1f7QmSG6EtkTjGkh+
VH+WMA4GA1UdDwEB/wQEAwIHgDAXBgNVHSABAf8EDTALMAkGB2eBEgECAQQwFQYD
VR0RBA4wDIgKKwYBBAGB3UVkAzBxBgNVHR8EajBoMDKgMKAuhixodHRwOi8vMjIx
LjE3Ni42NS41NTo4MDgxL2NybGRvd25sb2FkL25BLmNybDAyoDCgLoYsaHR0cDov
LzIyMS4xNzYuNjUuNTU6ODA4MS9jcmxkb3dubG9hZC9uQi5jcmwwCgYIKoZIzj0E
AwIDSAAwRQIgaTZ3NJ5+ijGmPofXXO04VsC1xMklRUM247r5FTA0lckCIQDSDSpf
Hi+JhNx9v/X2m5oUyaJWnOEwZuKyEwu2gHEu0g==
-----END CERTIFICATE-----
