Certificate:
    Data:
        Version: 3 (0x2)
        Serial Number:
            0d:37:0a:8f:f8:ea:62:19:0f:c2:80:18:8a:35:fc:41:ad:76:fc:83
        Signature Algorithm: ecdsa-with-SHA256
        Issuer: C=CN, O=NETCA Certificate Authority, CN=CCS NETCA eSIM ECC RootCA
        Validity
            Not Before: Dec 25 16:00:00 2022 GMT
            Not After : Dec 30 16:00:00 2024 GMT
        Subject: C=CN, O=CMCC, OU=eSIM Project Department, CN=esim.yhdzd.chinamobile.com
        Subject Public Key Info:
            Public Key Algorithm: id-ecPublicKey
                Public-Key: (256 bit)
                pub:
                    04:aa:75:3c:63:ab:0f:6e:c1:69:a5:f1:cc:5e:03:
                    86:c8:2d:c9:37:41:4d:0e:a8:04:fc:5f:23:ed:cb:
                    3b:b1:c1:20:a9:6d:6c:ee:06:64:c1:d9:9c:d4:60:
                    e6:cf:16:f4:4c:8d:ba:86:0a:a8:4a:7d:6b:78:e6:
                    bb:c2:4b:a4:4f
                ASN1 OID: prime256v1
                NIST CURVE: P-256
        X509v3 extensions:
            X509v3 Authority Key Identifier: 
                D3:EF:83:FC:50:3F:9C:6E:C4:B7:F6:AE:05:5B:7F:13:73:D4:AB:1E
            X509v3 Subject Key Identifier: 
                6D:69:DD:23:E3:B5:0A:AB:4D:14:E0:47:91:9B:2B:15:C8:3A:8D:FF
            X509v3 Key Usage: critical
                Digital Signature
            X509v3 Certificate Policies: critical
                Policy: 2.23.146.1.2.1.4
            X509v3 Subject Alternative Name: 
                Registered ID:1.3.6.1.4.1.28357.100.3
            X509v3 Basic Constraints: critical
                CA:FALSE
            X509v3 CRL Distribution Points: 
                Full Name:
                  URI:http://crl.cnca.net/esim/ccs/a.crl
    Signature Algorithm: ecdsa-with-SHA256
    Signature Value:
        30:45:02:21:00:c0:1d:ac:be:c9:46:a1:44:0d:f7:c7:09:a4:
        67:58:ff:93:e6:5f:b7:22:03:1e:7e:fe:4d:f7:04:3e:e6:77:
        8b:02:20:72:ba:b1:f9:e4:f7:36:ab:bb:f4:1c:8f:cb:8e:05:
        8b:89:f2:b0:68:16:5c:db:a7:78:c1:ea:88:a7:b5:b7:0d
-----BEGIN CERTIFICATE-----
MIICgzCCAimgAwIBAgIUDTcKj/jqYhkPwoAYijX8Qa12/IMwCgYIKoZIzj0EAwIw
VzELMAkGA1UEBhMCQ04xJDAiBgNVBAoMG05FVENBIENlcnRpZmljYXRlIEF1dGhv
cml0eTEiMCAGA1UEAwwZQ0NTIE5FVENBIGVTSU0gRUNDIFJvb3RDQTAeFw0yMjEy
MjUxNjAwMDBaFw0yNDEyMzAxNjAwMDBaMGMxCzAJBgNVBAYTAkNOMQ0wCwYDVQQK
DARDTUNDMSAwHgYDVQQLDBdlU0lNIFByb2plY3QgRGVwYXJ0bWVudDEjMCEGA1UE
AwwaZXNpbS55aGR6ZC5jaGluYW1vYmlsZS5jb20wWTATBgcqhkjOPQIBBggqhkjO
PQMBBwNCAASqdTxjqw9uwWml8cxeA4bILck3QU0OqAT8XyPtyzuxwSCpbWzuBmTB
2ZzUYObPFvRMjbqGCqhKfWt45rvCS6RPo4HGMIHDMB8GA1UdIwQYMBaAFNPvg/xQ
P5xuxLf2rgVbfxNz1KseMB0GA1UdDgQWBBRtad0j47UKq00U4EeRmysVyDqN/zAO
BgNVHQ8BAf8EBAMCB4AwFwYDVR0gAQH/BA0wCzAJBgdngRIBAgEEMBUGA1UdEQQO
MAyICisGAQQBgd1FZAMwDAYDVR0TAQH/BAIwADAzBgNVHR8ELDAqMCigJqAkhiJo
dHRwOi8vY3JsLmNuY2EubmV0L2VzaW0vY2NzL2EuY3JsMAoGCCqGSM49BAMCA0gA
MEUCIQDAHay+yUahRA33xwmkZ1j/k+ZftyIDHn7+TfcEPuZ3iwIgcrqx+eT3Nqu7
9ByPy44Fi4nysGgWXNuneMHqiKe1tw0=
-----END CERTIFICATE-----
