Certificate:
    Data:
        Version: 3 (0x2)
        Serial Number:
            48:e7:b0:d0:f9:b6:eb:78:35:4f:1a:c7:5a:17:ad:3a
        Signature Algorithm: ecdsa-with-SHA256
        Issuer:
            C = US
            O = Entrust, Inc.
            OU = See www.entrust.net/legal-terms
            OU = (c) 2016 Entrust, Inc. - for authorized use only
            CN = Entrust eSIM Certification Authority
        Validity
            Not Before: May  9 19:02:12 2024 GMT
            Not After : May  9 19:02:11 2026 GMT
        Subject:
            C = FR
            ST = Île-de-France
            L = Courbevoie
            O = THALES
            CN = SMDP+ VZW GCP UE 04 ENT
            emailAddress = dl.des.ame.sre.gcp@thalesgroup.com
        Subject Public Key Info:
            Public Key Algorithm: id-ecPublicKey
                Public-Key: (256 bit)
                pub:
                    04:86:f1:68:71:24:ee:bd:66:5a:e2:6a:2f:e8:78:
                    fd:ca:82:0c:89:3f:75:49:f4:8a:6e:8b:79:ad:1c:
                    82:b7:cd:01:82:9f:5c:7b:8c:8c:8d:03:5e:a8:ce:
                    0b:b2:d7:23:fa:8c:25:df:b3:7a:5f:cf:3f:fe:7c:
                    a0:0c:5a:8a:25
                ASN1 OID: prime256v1
                NIST CURVE: P-256
        X509v3 extensions:
            X509v3 Basic Constraints: critical
                CA:FALSE
            X509v3 Subject Key Identifier: 
                CC:32:5E:AA:FD:CD:83:8A:EF:37:A3:03:52:C3:D7:72:36:2A:1C:D1
            X509v3 Authority Key Identifier: 
                16:70:4B:7F:35:1E:36:07:F1:8C:4B:70:00:5C:3A:00:3D:FD:41:4A
            X509v3 CRL Distribution Points: 
                Full Name:
                  URI:http://crl.entrust.net/entesimca.crl
            X509v3 Subject Alternative Name: 
                Registered ID:1.3.6.1.4.1.31746.1.220.100.101.1
            X509v3 Key Usage: critical
                Digital Signature
            X509v3 Certificate Policies: critical
                Policy: 2.23.146.1.2.1.4
    Signature Algorithm: ecdsa-with-SHA256
    Signature Value:
        30:45:02:21:00:c9:84:21:86:5e:e9:35:94:32:76:99:6e:42:
        0e:7d:1c:08:e1:bd:74:29:02:91:9b:4a:4f:54:b8:bd:73:64:
        de:02:20:64:60:43:7b:db:e6:3f:8d:39:c3:b0:84:ef:1c:b9:
        3a:16:4f:8f:e6:b6:3e:24:ca:25:a4:1d:e0:b5:ba:8c:ec
-----BEGIN CERTIFICATE-----
MIIDJzCCAs2gAwIBAgIQSOew0Pm263g1TxrHWhetOjAKBggqhkjOPQQDAjCBuTEL
MAkGA1UEBhMCVVMxFjAUBgNVBAoTDUVudHJ1c3QsIEluYy4xKDAmBgNVBAsTH1Nl
ZSB3d3cuZW50cnVzdC5uZXQvbGVnYWwtdGVybXMxOTA3BgNVBAsTMChjKSAyMDE2
IEVudHJ1c3QsIEluYy4gLSBmb3IgYXV0aG9yaXplZCB1c2Ugb25seTEtMCsGA1UE
AxMkRW50cnVzdCBlU0lNIENlcnRpZmljYXRpb24gQXV0aG9yaXR5MB4XDTI0MDUw
OTE5MDIxMloXDTI2MDUwOTE5MDIxMVowgaExCzAJBgNVBAYTAkZSMRcwFQYDVQQI
DA7DjmxlLWRlLUZyYW5jZTETMBEGA1UEBxMKQ291cmJldm9pZTEPMA0GA1UEChMG
VEhBTEVTMSAwHgYDVQQDExdTTURQKyBWWlcgR0NQIFVFIDA0IEVOVDExMC8GCSqG
SIb3DQEJARYiZGwuZGVzLmFtZS5zcmUuZ2NwQHRoYWxlc2dyb3VwLmNvbTBZMBMG
ByqGSM49AgEGCCqGSM49AwEHA0IABIbxaHEk7r1mWuJqL+h4/cqCDIk/dUn0im6L
ea0cgrfNAYKfXHuMjI0DXqjOC7LXI/qMJd+zel/PP/58oAxaiiWjgcwwgckwDAYD
VR0TAQH/BAIwADAdBgNVHQ4EFgQUzDJeqv3Ng4rvN6MDUsPXcjYqHNEwHwYDVR0j
BBgwFoAUFnBLfzUeNgfxjEtwAFw6AD39QUowNQYDVR0fBC4wLDAqoCigJoYkaHR0
cDovL2NybC5lbnRydXN0Lm5ldC9lbnRlc2ltY2EuY3JsMBkGA1UdEQQSMBCIDisG
AQQBgfgCAYFcZGUBMA4GA1UdDwEB/wQEAwIHgDAXBgNVHSABAf8EDTALMAkGB2eB
EgECAQQwCgYIKoZIzj0EAwIDSAAwRQIhAMmEIYZe6TWUMnaZbkIOfRwI4b10KQKR
m0pPVLi9c2TeAiBkYEN72+Y/jTnDsITvHLk6Fk+P5rY+JMolpB3gtbqM7A==
-----END CERTIFICATE-----
