Certificate:
    Data:
        Version: 3 (0x2)
        Serial Number:
            1f:fa:a6:84:bc:27:e8:8c:00:00:00:00:58:2c:d8:73
        Signature Algorithm: ecdsa-with-SHA256
        Issuer: C=US, O=Entrust, Inc., OU=See www.entrust.net/legal-terms, OU=(c) 2016 Entrust, Inc. - for authorized use only, CN=Entrust eSIM Certification Authority
        Validity
            Not Before: Aug 23 17:10:28 2018 GMT
            Not After : Aug 23 17:40:24 2021 GMT
        Subject: C=IN, ST=Haryana, L=Gurgaon, O=Bharti Airtel, CN=AirOn V4 PROD AUTH CERT, emailAddress=Subhanshu.Rai@airtel.com
        Subject Public Key Info:
            Public Key Algorithm: id-ecPublicKey
                Public-Key: (256 bit)
                pub:
                    04:8d:23:1e:85:cc:07:ff:a7:57:76:5b:96:19:9a:
                    52:24:28:09:79:6b:0a:5f:66:e9:5b:2b:0f:7d:2b:
                    fd:dc:03:b9:f5:d8:3e:48:20:98:a5:ab:c9:82:d3:
                    4a:50:e2:f7:39:f9:d3:1a:dd:4e:dd:55:04:7d:f1:
                    61:c2:31:c0:df
                ASN1 OID: prime256v1
                NIST CURVE: P-256
        X509v3 extensions:
            X509v3 Key Usage: critical
                Digital Signature
            X509v3 Certificate Policies: critical
                Policy: 2.23.146.1.2.1.4
            X509v3 CRL Distribution Points: 
                Full Name:
                  URI:http://crl.entrust.net/entesimca.crl
            X509v3 Subject Alternative Name: 
                Registered ID:1.3.6.1.4.1.42428.104.4.2
            X509v3 Authority Key Identifier: 
                16:70:4B:7F:35:1E:36:07:F1:8C:4B:70:00:5C:3A:00:3D:FD:41:4A
            X509v3 Subject Key Identifier: 
                AF:37:75:95:7C:96:8B:CE:1E:70:6D:E7:EA:CD:5A:FA:48:FB:F2:C0
    Signature Algorithm: ecdsa-with-SHA256
    Signature Value:
        30:46:02:21:00:a8:4c:e8:2d:b6:40:17:6a:88:c5:8e:f0:17:
        24:f1:a8:b3:0b:c4:4a:6e:b1:23:68:ed:29:2b:cf:31:e1:73:
        53:02:21:00:d7:ab:cf:14:99:f6:9e:58:6d:8c:91:58:5e:37:
        f1:60:e8:1e:58:0e:79:f9:8f:fc:05:fc:d2:88:9f:16:05:5c
-----BEGIN CERTIFICATE-----
MIIDCjCCAq+gAwIBAgIQH/qmhLwn6IwAAAAAWCzYczAKBggqhkjOPQQDAjCBuTEL
MAkGA1UEBhMCVVMxFjAUBgNVBAoTDUVudHJ1c3QsIEluYy4xKDAmBgNVBAsTH1Nl
ZSB3d3cuZW50cnVzdC5uZXQvbGVnYWwtdGVybXMxOTA3BgNVBAsTMChjKSAyMDE2
IEVudHJ1c3QsIEluYy4gLSBmb3IgYXV0aG9yaXplZCB1c2Ugb25seTEtMCsGA1UE
AxMkRW50cnVzdCBlU0lNIENlcnRpZmljYXRpb24gQXV0aG9yaXR5MB4XDTE4MDgy
MzE3MTAyOFoXDTIxMDgyMzE3NDAyNFowgZQxCzAJBgNVBAYTAklOMRAwDgYDVQQI
EwdIYXJ5YW5hMRAwDgYDVQQHEwdHdXJnYW9uMRYwFAYDVQQKEw1CaGFydGkgQWly
dGVsMSAwHgYDVQQDExdBaXJPbiBWNCBQUk9EIEFVVEggQ0VSVDEnMCUGCSqGSIb3
DQEJARYYU3ViaGFuc2h1LlJhaUBhaXJ0ZWwuY29tMFkwEwYHKoZIzj0CAQYIKoZI
zj0DAQcDQgAEjSMehcwH/6dXdluWGZpSJCgJeWsKX2bpWysPfSv93AO59dg+SCCY
pavJgtNKUOL3OfnTGt1O3VUEffFhwjHA36OBuzCBuDAOBgNVHQ8BAf8EBAMCB4Aw
FwYDVR0gAQH/BA0wCzAJBgdngRIBAgEEMDUGA1UdHwQuMCwwKqAooCaGJGh0dHA6
Ly9jcmwuZW50cnVzdC5uZXQvZW50ZXNpbWNhLmNybDAWBgNVHREEDzANiAsrBgEE
AYLLPGgEAjAfBgNVHSMEGDAWgBQWcEt/NR42B/GMS3AAXDoAPf1BSjAdBgNVHQ4E
FgQUrzd1lXyWi84ecG3n6s1a+kj78sAwCgYIKoZIzj0EAwIDSQAwRgIhAKhM6C22
QBdqiMWO8Bck8aizC8RKbrEjaO0pK88x4XNTAiEA16vPFJn2nlhtjJFYXjfxYOge
WA55+Y/8BfzSiJ8WBVw=
-----END CERTIFICATE-----
