Certificate:
    Data:
        Version: 3 (0x2)
        Serial Number:
            21:46:69:04:70:dc:8b:7a:ed:e0:15:11:d7:48:48:49
        Signature Algorithm: ecdsa-with-SHA256
        Issuer: O=GSM Association, CN=GSM Association - RSP2 Root CI1
        Validity
            Not Before: Oct 12 00:00:00 2021 GMT
            Not After : Oct 11 23:59:59 2024 GMT
        Subject: C=IN, L=Delhi, ST=DELHI, O=Bharti Airtel Limited, CN=Auth_AirOn_V4, OU=Airtel
        Subject Public Key Info:
            Public Key Algorithm: id-ecPublicKey
                Public-Key: (256 bit)
                pub:
                    04:43:ee:c6:15:3d:2b:c2:7b:e5:94:d7:1a:39:d9:
                    ba:cd:ac:53:31:02:96:99:2e:34:87:c7:93:04:80:
                    0f:cf:fd:e0:0e:f6:77:7f:3c:a3:8a:cf:4c:4a:5f:
                    b1:92:13:9f:28:22:ff:15:e9:af:75:b8:43:65:aa:
                    f3:76:92:ae:8f
                ASN1 OID: prime256v1
                NIST CURVE: P-256
        X509v3 extensions:
            X509v3 Subject Key Identifier: 
                50:DA:4D:B9:58:A1:B6:63:FC:21:C9:0A:62:C0:36:0E:95:5C:E0:5B
            X509v3 Certificate Policies: critical
                Policy: 2.23.146.1.2.1.4
            X509v3 CRL Distribution Points: 
                Full Name:
                  URI:http://gsma-crl.symauth.com/offlineca/gsma-rsp2-root-ci1.crl
            X509v3 Key Usage: critical
                Digital Signature
            X509v3 Subject Alternative Name: 
                Registered ID:1.3.6.1.4.1.42428.104.4.2
            X509v3 Authority Key Identifier: 
                81:37:0F:51:25:D0:B1:D4:08:D4:C3:B2:32:E6:D2:5E:79:5B:EB:FB
    Signature Algorithm: ecdsa-with-SHA256
    Signature Value:
        30:45:02:20:1e:1b:01:f5:93:e0:21:35:5d:e1:dd:0e:bc:b6:
        c7:8e:0a:4d:ab:2f:7d:e3:cb:ce:b0:09:90:e4:ea:ac:7a:06:
        02:21:00:fc:5e:f6:c6:5c:97:c7:8c:b7:3e:82:db:55:e3:3a:
        e2:08:36:66:d6:9d:12:54:a6:08:d0:5e:88:df:52:cf:72
-----BEGIN CERTIFICATE-----
MIICjDCCAjKgAwIBAgIQIUZpBHDci3rt4BUR10hISTAKBggqhkjOPQQDAjBEMRgw
FgYDVQQKEw9HU00gQXNzb2NpYXRpb24xKDAmBgNVBAMTH0dTTSBBc3NvY2lhdGlv
biAtIFJTUDIgUm9vdCBDSTEwHhcNMjExMDEyMDAwMDAwWhcNMjQxMDExMjM1OTU5
WjB2MQswCQYDVQQGEwJJTjEOMAwGA1UEBwwFRGVsaGkxDjAMBgNVBAgMBURFTEhJ
MR4wHAYDVQQKDBVCaGFydGkgQWlydGVsIExpbWl0ZWQxFjAUBgNVBAMMDUF1dGhf
QWlyT25fVjQxDzANBgNVBAsMBkFpcnRlbDBZMBMGByqGSM49AgEGCCqGSM49AwEH
A0IABEPuxhU9K8J75ZTXGjnZus2sUzEClpkuNIfHkwSAD8/94A72d388o4rPTEpf
sZITnygi/xXpr3W4Q2Wq83aSro+jgdMwgdAwHQYDVR0OBBYEFFDaTblYobZj/CHJ
CmLANg6VXOBbMBcGA1UdIAEB/wQNMAswCQYHZ4ESAQIBBDBNBgNVHR8ERjBEMEKg
QKA+hjxodHRwOi8vZ3NtYS1jcmwuc3ltYXV0aC5jb20vb2ZmbGluZWNhL2dzbWEt
cnNwMi1yb290LWNpMS5jcmwwDgYDVR0PAQH/BAQDAgeAMBYGA1UdEQQPMA2ICysG
AQQBgss8aAQCMB8GA1UdIwQYMBaAFIE3D1El0LHUCNTDsjLm0l55W+v7MAoGCCqG
SM49BAMCA0gAMEUCIB4bAfWT4CE1XeHdDry2x44KTasvfePLzrAJkOTqrHoGAiEA
/F72xlyXx4y3PoLbVeM64gg2ZtadElSmCNBeiN9Sz3I=
-----END CERTIFICATE-----
