Certificate:
    Data:
        Version: 3 (0x2)
        Serial Number:
            15:48:a5:b7:f0:bf:22:1e:c6:38:88:1a:b3:88:9a:f2
        Signature Algorithm: ecdsa-with-SHA256
        Issuer:
            O = GSM Association
            CN = GSM Association - RSP2 Root CI1
        Validity
            Not Before: Oct  2 00:00:00 2024 GMT
            Not After : Oct  1 23:59:59 2027 GMT
        Subject:
            C = IN
            L = Delhi
            ST = DELHI
            O = Bharti Airtel Limited
            CN = Auth_AirOn_V4
            OU = Airtel
        Subject Public Key Info:
            Public Key Algorithm: id-ecPublicKey
                Public-Key: (256 bit)
                pub:
                    04:43:ee:c6:15:3d:2b:c2:7b:e5:94:d7:1a:39:d9:
                    ba:cd:ac:53:31:02:96:99:2e:34:87:c7:93:04:80:
                    0f:cf:fd:e0:0e:f6:77:7f:3c:a3:8a:cf:4c:4a:5f:
                    b1:92:13:9f:28:22:ff:15:e9:af:75:b8:43:65:aa:
                    f3:76:92:ae:8f
                ASN1 OID: prime256v1
                NIST CURVE: P-256
        X509v3 extensions:
            X509v3 Subject Key Identifier: 
                50:DA:4D:B9:58:A1:B6:63:FC:21:C9:0A:62:C0:36:0E:95:5C:E0:5B
            X509v3 Certificate Policies: critical
                Policy: 2.23.146.1.2.1.4
            X509v3 CRL Distribution Points: 
                Full Name:
                  URI:http://gsma-crl.symauth.com/offlineca/gsma-rsp2-root-ci1.crl
            X509v3 Key Usage: critical
                Digital Signature
            X509v3 Subject Alternative Name: 
                Registered ID:1.3.6.1.4.1.42428.104.4.2
            X509v3 Authority Key Identifier: 
                81:37:0F:51:25:D0:B1:D4:08:D4:C3:B2:32:E6:D2:5E:79:5B:EB:FB
    Signature Algorithm: ecdsa-with-SHA256
    Signature Value:
        30:45:02:21:00:d9:8f:cc:c4:0f:5f:66:82:30:f4:af:5f:a4:
        45:85:70:a8:f0:fc:ca:04:31:9a:95:ed:d4:7d:cb:9a:3e:ca:
        6d:02:20:51:50:ea:1a:f8:37:dc:c0:39:8a:c4:2a:cf:65:be:
        a5:e5:c0:9f:0b:99:83:47:c9:6e:56:11:89:ec:79:73:25
-----BEGIN CERTIFICATE-----
MIICjDCCAjKgAwIBAgIQFUilt/C/Ih7GOIgas4ia8jAKBggqhkjOPQQDAjBEMRgw
FgYDVQQKEw9HU00gQXNzb2NpYXRpb24xKDAmBgNVBAMTH0dTTSBBc3NvY2lhdGlv
biAtIFJTUDIgUm9vdCBDSTEwHhcNMjQxMDAyMDAwMDAwWhcNMjcxMDAxMjM1OTU5
WjB2MQswCQYDVQQGEwJJTjEOMAwGA1UEBwwFRGVsaGkxDjAMBgNVBAgMBURFTEhJ
MR4wHAYDVQQKDBVCaGFydGkgQWlydGVsIExpbWl0ZWQxFjAUBgNVBAMMDUF1dGhf
QWlyT25fVjQxDzANBgNVBAsMBkFpcnRlbDBZMBMGByqGSM49AgEGCCqGSM49AwEH
A0IABEPuxhU9K8J75ZTXGjnZus2sUzEClpkuNIfHkwSAD8/94A72d388o4rPTEpf
sZITnygi/xXpr3W4Q2Wq83aSro+jgdMwgdAwHQYDVR0OBBYEFFDaTblYobZj/CHJ
CmLANg6VXOBbMBcGA1UdIAEB/wQNMAswCQYHZ4ESAQIBBDBNBgNVHR8ERjBEMEKg
QKA+hjxodHRwOi8vZ3NtYS1jcmwuc3ltYXV0aC5jb20vb2ZmbGluZWNhL2dzbWEt
cnNwMi1yb290LWNpMS5jcmwwDgYDVR0PAQH/BAQDAgeAMBYGA1UdEQQPMA2ICysG
AQQBgss8aAQCMB8GA1UdIwQYMBaAFIE3D1El0LHUCNTDsjLm0l55W+v7MAoGCCqG
SM49BAMCA0gAMEUCIQDZj8zED19mgjD0r1+kRYVwqPD8ygQxmpXt1H3Lmj7KbQIg
UVDqGvg33MA5isQqz2W+peXAnwuZg0fJblYRiex5cyU=
-----END CERTIFICATE-----
