Certificate:
    Data:
        Version: 3 (0x2)
        Serial Number:
            19:1f:e4:ea:b9:91:4d:56:f4:7d:67:8c:db:b3:65:5e
        Signature Algorithm: ecdsa-with-SHA256
        Issuer: O=Symantec Corporation, CN=Symantec Corporation RSP Test Root CA - For Test Purposes Only
        Validity
            Not Before: Nov  5 00:00:00 2020 GMT
            Not After : Nov  5 23:59:59 2023 GMT
        Subject: CN=IDEMIA Test SMDP, O=IDEMIA
        Subject Public Key Info:
            Public Key Algorithm: id-ecPublicKey
                Public-Key: (256 bit)
                pub:
                    04:4d:fe:d4:f4:69:47:91:bf:16:95:ce:a0:30:7a:
                    35:b4:18:01:96:95:38:7b:b7:5b:7d:24:47:b6:b5:
                    20:9f:04:45:ae:4e:5e:52:1c:d1:38:88:d7:5f:e0:
                    7c:85:80:22:2a:e2:0d:ba:ac:1d:77:cd:76:30:49:
                    93:42:1b:d7:39
                ASN1 OID: prime256v1
                NIST CURVE: P-256
        X509v3 extensions:
            X509v3 Key Usage: critical
                Digital Signature
            X509v3 Subject Key Identifier: 
                BD:5A:82:CC:1A:96:60:21:18:BA:75:60:A1:FF:83:A7:8B:21:0B:E5
            X509v3 Subject Alternative Name: 
                Registered ID:1.3.6.1.4.1.30703.836685.502.30703
            X509v3 Certificate Policies: critical
                Policy: 2.23.146.1.2.1.4
            X509v3 CRL Distribution Points: 
                Full Name:
                  URI:http://pki-crl.symauth.com/ca_a3dc2e3fea7708a11c889386d9d3a76f/LatestCRL.crl
            X509v3 Authority Key Identifier: 
                66:5A:14:33:D6:7C:1A:2C:5D:B8:B5:2C:96:7F:10:A0:57:BA:5C:B2
    Signature Algorithm: ecdsa-with-SHA256
    Signature Value:
        30:46:02:21:00:e2:ee:9d:8c:6d:06:5b:63:cc:93:83:d2:a0:
        d6:5a:e8:b9:b8:e2:35:a7:52:93:d9:65:68:ee:e7:55:2d:93:
        dd:02:21:00:db:1e:62:cb:88:9e:b7:68:8c:1c:ce:78:75:01:
        d8:3c:22:c1:5a:ef:59:cc:b4:c8:d6:bd:b0:0c:60:93:e4:ec
-----BEGIN CERTIFICATE-----
MIICfDCCAiGgAwIBAgIQGR/k6rmRTVb0fWeM27NlXjAKBggqhkjOPQQDAjBoMR0w
GwYDVQQKExRTeW1hbnRlYyBDb3Jwb3JhdGlvbjFHMEUGA1UEAxM+U3ltYW50ZWMg
Q29ycG9yYXRpb24gUlNQIFRlc3QgUm9vdCBDQSAtIEZvciBUZXN0IFB1cnBvc2Vz
IE9ubHkwHhcNMjAxMTA1MDAwMDAwWhcNMjMxMTA1MjM1OTU5WjAsMRkwFwYDVQQD
DBBJREVNSUEgVGVzdCBTTURQMQ8wDQYDVQQKDAZJREVNSUEwWTATBgcqhkjOPQIB
BggqhkjOPQMBBwNCAARN/tT0aUeRvxaVzqAwejW0GAGWlTh7t1t9JEe2tSCfBEWu
Tl5SHNE4iNdf4HyFgCIq4g26rB13zXYwSZNCG9c5o4HoMIHlMA4GA1UdDwEB/wQE
AwIHgDAdBgNVHQ4EFgQUvVqCzBqWYCEYunVgof+Dp4shC+UwGwYDVR0RBBQwEogQ
KwYBBAGB72+ziE2DdoHvbzAXBgNVHSABAf8EDTALMAkGB2eBEgECAQQwXQYDVR0f
BFYwVDBSoFCgToZMaHR0cDovL3BraS1jcmwuc3ltYXV0aC5jb20vY2FfYTNkYzJl
M2ZlYTc3MDhhMTFjODg5Mzg2ZDlkM2E3NmYvTGF0ZXN0Q1JMLmNybDAfBgNVHSME
GDAWgBRmWhQz1nwaLF24tSyWfxCgV7pcsjAKBggqhkjOPQQDAgNJADBGAiEA4u6d
jG0GW2PMk4PSoNZa6Lm44jWnUpPZZWju51Utk90CIQDbHmLLiJ63aIwcznh1Adg8
IsFa71nMtMjWvbAMYJPk7A==
-----END CERTIFICATE-----
