Certificate:
    Data:
        Version: 3 (0x2)
        Serial Number: 100 (0x64)
        Signature Algorithm: ecdsa-with-SHA256
        Issuer: CN=GSMA Test CI, OU=TESTCERT, O=RSPTEST, C=IT
        Validity
            Not Before: Feb  1 13:38:56 2017 GMT
            Not After : Feb  1 13:38:56 2020 GMT
        Subject: O=ACME, CN=TEST SM-DP+
        Subject Public Key Info:
            Public Key Algorithm: id-ecPublicKey
                Public-Key: (256 bit)
                pub:
                    04:4d:fe:d4:f4:69:47:91:bf:16:95:ce:a0:30:7a:
                    35:b4:18:01:96:95:38:7b:b7:5b:7d:24:47:b6:b5:
                    20:9f:04:45:ae:4e:5e:52:1c:d1:38:88:d7:5f:e0:
                    7c:85:80:22:2a:e2:0d:ba:ac:1d:77:cd:76:30:49:
                    93:42:1b:d7:39
                ASN1 OID: prime256v1
                NIST CURVE: P-256
        X509v3 extensions:
            X509v3 Authority Key Identifier: 
                F5:41:72:BD:F9:8A:95:D6:5C:BE:B8:8A:38:A1:C1:1D:80:0A:85:C3
            X509v3 Subject Key Identifier: 
                BD:5A:82:CC:1A:96:60:21:18:BA:75:60:A1:FF:83:A7:8B:21:0B:E5
            X509v3 Subject Alternative Name: 
                Registered ID:2.999.10
            X509v3 Key Usage: critical
                Digital Signature
            X509v3 Certificate Policies: critical
                Policy: 2.23.146.1.2.1.4
            X509v3 CRL Distribution Points: 
                Full Name:
                  URI:http://ci.test.gsma.com/CRL-A.crl
                Full Name:
                  URI:http://ci.test.gsma.com/CRL-B.crl
    Signature Algorithm: ecdsa-with-SHA256
    Signature Value:
        30:45:02:21:00:f1:cf:ef:41:e2:b8:a0:22:62:17:10:b9:6a:
        65:4f:ff:e4:85:d0:8c:20:e6:64:e8:5b:f2:d7:27:00:2a:07:
        38:02:20:69:25:bd:f7:bb:87:d0:c8:be:2b:78:a0:c5:9a:61:
        01:78:29:30:c2:fe:98:ad:2d:70:38:65:6a:02:14:a3:97
-----BEGIN CERTIFICATE-----
MIICNzCCAd2gAwIBAgIBZDAKBggqhkjOPQQDAjBJMRUwEwYDVQQDDAxHU01BIFRl
c3QgQ0kxETAPBgNVBAsMCFRFU1RDRVJUMRAwDgYDVQQKDAdSU1BURVNUMQswCQYD
VQQGEwJJVDAeFw0xNzAyMDExMzM4NTZaFw0yMDAyMDExMzM4NTZaMCUxDTALBgNV
BAoMBEFDTUUxFDASBgNVBAMMC1RFU1QgU00tRFArMFkwEwYHKoZIzj0CAQYIKoZI
zj0DAQcDQgAETf7U9GlHkb8Wlc6gMHo1tBgBlpU4e7dbfSRHtrUgnwRFrk5eUhzR
OIjXX+B8hYAiKuINuqwdd812MEmTQhvXOaOB2TCB1jAfBgNVHSMEGDAWgBT1QXK9
+YqV1ly+uIo4ocEdgAqFwzAdBgNVHQ4EFgQUvVqCzBqWYCEYunVgof+Dp4shC+Uw
DgYDVR0RBAcwBYgDiDcKMA4GA1UdDwEB/wQEAwIHgDAXBgNVHSABAf8EDTALMAkG
B2eBEgECAQQwWwYDVR0fBFQwUjAnoCWgI4YhaHR0cDovL2NpLnRlc3QuZ3NtYS5j
b20vQ1JMLUEuY3JsMCegJaAjhiFodHRwOi8vY2kudGVzdC5nc21hLmNvbS9DUkwt
Qi5jcmwwCgYIKoZIzj0EAwIDSAAwRQIhAPHP70HiuKAiYhcQuWplT//khdCMIOZk
6Fvy1ycAKgc4AiBpJb33u4fQyL4reKDFmmEBeCkwwv6YrS1wOGVqAhSjlw==
-----END CERTIFICATE-----
