Certificate:
    Data:
        Version: 3 (0x2)
        Serial Number:
            31:35:f1:50:ba:d9:db:7b:0e:84:e5:99:7f:56:b4:23
        Signature Algorithm: ecdsa-with-SHA256
        Issuer:
            O = GSM Association
            CN = GSM Association - RSP2 Root CI1
        Validity
            Not Before: Jun  5 00:00:00 2024 GMT
            Not After : Jun  4 23:59:59 2027 GMT
        Subject:
            C = CN
            ST = GuangDong
            L = ShenZhen
            O = LinksField
            OU = SAS-SM
            CN = rsp-0001.linksfield.net
        Subject Public Key Info:
            Public Key Algorithm: id-ecPublicKey
                Public-Key: (256 bit)
                pub:
                    04:16:35:7f:d2:15:a4:cb:5a:d0:19:ee:0a:2a:96:
                    28:11:e0:84:cc:04:7d:70:55:cb:6d:66:77:11:27:
                    4a:17:e8:e4:c2:20:e4:3c:e1:9f:5a:96:7c:91:c0:
                    ac:75:d9:44:31:18:85:4c:ef:19:80:60:d1:1b:3e:
                    59:ec:1b:8e:dd
                ASN1 OID: prime256v1
                NIST CURVE: P-256
        X509v3 extensions:
            X509v3 Certificate Policies: critical
                Policy: 2.23.146.1.2.1.4
            X509v3 CRL Distribution Points: 
                Full Name:
                  URI:http://gsma-crl.symauth.com/offlineca/gsma-rsp2-root-ci1.crl
            X509v3 Key Usage: critical
                Digital Signature
            X509v3 Subject Alternative Name: 
                Registered ID:1.3.6.1.4.1.57489
            X509v3 Subject Key Identifier: 
                41:5E:34:E1:07:D8:87:31:CC:B9:87:81:17:66:EE:80:34:19:BE:AC
            X509v3 Authority Key Identifier: 
                81:37:0F:51:25:D0:B1:D4:08:D4:C3:B2:32:E6:D2:5E:79:5B:EB:FB
    Signature Algorithm: ecdsa-with-SHA256
    Signature Value:
        30:46:02:21:00:9b:06:7f:f9:11:56:f0:97:95:e3:e9:f3:24:
        6e:82:ed:76:10:3f:95:42:45:99:b2:16:19:a6:4b:f7:bd:b5:
        c2:02:21:00:dd:bb:73:13:9d:62:6f:62:a5:3b:e2:e2:6c:16:
        b9:e8:1f:bc:43:2f:a8:a2:e8:d8:48:6c:54:3a:0f:7b:c9:87
-----BEGIN CERTIFICATE-----
MIICkDCCAjWgAwIBAgIQMTXxULrZ23sOhOWZf1a0IzAKBggqhkjOPQQDAjBEMRgw
FgYDVQQKEw9HU00gQXNzb2NpYXRpb24xKDAmBgNVBAMTH0dTTSBBc3NvY2lhdGlv
biAtIFJTUDIgUm9vdCBDSTEwHhcNMjQwNjA1MDAwMDAwWhcNMjcwNjA0MjM1OTU5
WjB8MQswCQYDVQQGEwJDTjESMBAGA1UECAwJR3VhbmdEb25nMREwDwYDVQQHDAhT
aGVuWmhlbjETMBEGA1UECgwKTGlua3NGaWVsZDEPMA0GA1UECwwGU0FTLVNNMSAw
HgYDVQQDDBdyc3AtMDAwMS5saW5rc2ZpZWxkLm5ldDBZMBMGByqGSM49AgEGCCqG
SM49AwEHA0IABBY1f9IVpMta0BnuCiqWKBHghMwEfXBVy21mdxEnShfo5MIg5Dzh
n1qWfJHArHXZRDEYhUzvGYBg0Rs+Wewbjt2jgdAwgc0wFwYDVR0gAQH/BA0wCzAJ
BgdngRIBAgEEME0GA1UdHwRGMEQwQqBAoD6GPGh0dHA6Ly9nc21hLWNybC5zeW1h
dXRoLmNvbS9vZmZsaW5lY2EvZ3NtYS1yc3AyLXJvb3QtY2kxLmNybDAOBgNVHQ8B
Af8EBAMCB4AwEwYDVR0RBAwwCogIKwYBBAGDwREwHQYDVR0OBBYEFEFeNOEH2Icx
zLmHgRdm7oA0Gb6sMB8GA1UdIwQYMBaAFIE3D1El0LHUCNTDsjLm0l55W+v7MAoG
CCqGSM49BAMCA0kAMEYCIQCbBn/5EVbwl5Xj6fMkboLtdhA/lUJFmbIWGaZL9721
wgIhAN27cxOdYm9ipTvi4mwWuegfvEMvqKLo2EhsVDoPe8mH
-----END CERTIFICATE-----
