Certificate:
    Data:
        Version: 3 (0x2)
        Serial Number:
            03:a5:65:4b:07:47:7d:28:1a:15:c1:6e:35:0e:fe:03
        Signature Algorithm: ecdsa-with-SHA256
        Issuer: O=GSM Association, CN=GSM Association - RSP2 Root CI1
        Validity
            Not Before: Oct 27 00:00:00 2022 GMT
            Not After : Oct 26 23:59:59 2025 GMT
        Subject: C=DE, L=Munich, OU=Managed Service, O=Giesecke & Devrient 3S GmbH, CN=AirOn V4 DP PROD
        Subject Public Key Info:
            Public Key Algorithm: id-ecPublicKey
                Public-Key: (256 bit)
                pub:
                    04:7e:82:f2:d7:58:95:a4:0a:33:7b:db:1e:63:d6:
                    b4:14:24:23:f3:52:97:7b:44:82:59:6c:ec:05:7c:
                    ea:90:49:47:38:ea:51:a9:7d:eb:52:b1:1c:2c:8b:
                    be:ae:07:e2:fe:c7:42:b2:4f:c5:0b:a1:0e:31:07:
                    73:3a:73:69:6d
                ASN1 OID: prime256v1
                NIST CURVE: P-256
        X509v3 extensions:
            X509v3 Key Usage: critical
                Digital Signature
            X509v3 Certificate Policies: critical
                Policy: 2.23.146.1.2.1.4
            X509v3 Subject Alternative Name: 
                Registered ID:1.3.6.1.4.1.11791.104.90.3.4
            X509v3 CRL Distribution Points: 
                Full Name:
                  URI:http://gsma-crl.symauth.com/offlineca/gsma-rsp2-root-ci1.crl
            X509v3 Subject Key Identifier: 
                30:09:33:E8:19:93:8D:83:D0:70:1C:78:D1:8D:63:03:D9:C0:5D:20
            X509v3 Authority Key Identifier: 
                81:37:0F:51:25:D0:B1:D4:08:D4:C3:B2:32:E6:D2:5E:79:5B:EB:FB
    Signature Algorithm: ecdsa-with-SHA256
    Signature Value:
        30:46:02:21:00:8a:36:33:a6:1d:0e:5c:46:7d:39:9c:fb:64:
        7b:52:f0:dd:fa:34:f0:65:cb:71:5c:a8:7e:a5:e6:74:60:f3:
        09:02:21:00:e2:e4:fd:7b:fc:8d:0e:b5:f9:59:3c:69:97:41:
        c5:1a:2a:24:e9:87:fb:b6:a4:5b:ec:85:9f:2c:1c:51:45:9a
-----BEGIN CERTIFICATE-----
MIICkDCCAjWgAwIBAgIQA6VlSwdHfSgaFcFuNQ7+AzAKBggqhkjOPQQDAjBEMRgw
FgYDVQQKEw9HU00gQXNzb2NpYXRpb24xKDAmBgNVBAMTH0dTTSBBc3NvY2lhdGlv
biAtIFJTUDIgUm9vdCBDSTEwHhcNMjIxMDI3MDAwMDAwWhcNMjUxMDI2MjM1OTU5
WjB5MQswCQYDVQQGEwJERTEPMA0GA1UEBwwGTXVuaWNoMRgwFgYDVQQLDA9NYW5h
Z2VkIFNlcnZpY2UxJDAiBgNVBAoMG0dpZXNlY2tlICYgRGV2cmllbnQgM1MgR21i
SDEZMBcGA1UEAwwQQWlyT24gVjQgRFAgUFJPRDBZMBMGByqGSM49AgEGCCqGSM49
AwEHA0IABH6C8tdYlaQKM3vbHmPWtBQkI/NSl3tEglls7AV86pBJRzjqUal961Kx
HCyLvq4H4v7HQrJPxQuhDjEHczpzaW2jgdMwgdAwDgYDVR0PAQH/BAQDAgeAMBcG
A1UdIAEB/wQNMAswCQYHZ4ESAQIBBDAWBgNVHREEDzANiAsrBgEEAdwPaFoDBDBN
BgNVHR8ERjBEMEKgQKA+hjxodHRwOi8vZ3NtYS1jcmwuc3ltYXV0aC5jb20vb2Zm
bGluZWNhL2dzbWEtcnNwMi1yb290LWNpMS5jcmwwHQYDVR0OBBYEFDAJM+gZk42D
0HAceNGNYwPZwF0gMB8GA1UdIwQYMBaAFIE3D1El0LHUCNTDsjLm0l55W+v7MAoG
CCqGSM49BAMCA0kAMEYCIQCKNjOmHQ5cRn05nPtke1Lw3fo08GXLcVyofqXmdGDz
CQIhAOLk/Xv8jQ61+Vk8aZdBxRoqJOmH+7akW+yFnywcUUWa
-----END CERTIFICATE-----
