Certificate:
    Data:
        Version: 3 (0x2)
        Serial Number:
            7d:02:ad:50:0d:52:e3:60:c7:cc:9e:83:18:46:12:f9
        Signature Algorithm: ecdsa-with-SHA256
        Issuer: O=GSM Association, CN=GSM Association - RSP2 Root CI1
        Validity
            Not Before: Feb 27 00:00:00 2024 GMT
            Not After : Feb 26 23:59:59 2025 GMT
        Subject: C=CN, L=Beijing, O=Beijing Watchdata Co., Ltd., OU=Beijing Watchdata Co., Ltd., CN=Beijing Watchdata Co., Ltd. DP
        Subject Public Key Info:
            Public Key Algorithm: id-ecPublicKey
                Public-Key: (256 bit)
                pub:
                    04:5b:2b:23:65:02:d5:34:ad:75:e7:48:56:a1:2b:
                    f4:46:07:81:9f:5a:ca:30:a4:4c:e0:f0:13:5d:87:
                    47:65:bb:d0:3b:5d:a7:4f:af:98:ab:25:89:19:44:
                    bf:95:93:4a:c9:e8:dc:b2:2f:ee:d9:92:3c:58:1e:
                    e6:d6:94:a5:89
                ASN1 OID: prime256v1
                NIST CURVE: P-256
        X509v3 extensions:
            X509v3 Certificate Policies: critical
                Policy: 2.23.146.1.2.1.4
            X509v3 CRL Distribution Points: 
                Full Name:
                  URI:http://gsma-crl.symauth.com/offlineca/gsma-rsp2-root-ci1.crl
            X509v3 Key Usage: critical
                Digital Signature
            X509v3 Subject Alternative Name: 
                Registered ID:1.3.6.1.4.1.32510
            X509v3 Subject Key Identifier: 
                C9:87:57:32:B9:C4:C1:72:04:45:93:F9:BD:AF:7A:01:66:34:47:3F
            X509v3 Authority Key Identifier: 
                81:37:0F:51:25:D0:B1:D4:08:D4:C3:B2:32:E6:D2:5E:79:5B:EB:FB
    Signature Algorithm: ecdsa-with-SHA256
    Signature Value:
        30:46:02:21:00:89:8a:0f:7b:e6:03:d6:72:d7:29:05:64:25:
        78:67:7b:f8:b5:94:88:c0:69:e4:a0:e8:ad:88:8c:b2:83:a5:
        99:02:21:00:fe:94:41:6c:b7:40:e4:3c:a9:d0:38:da:c8:7c:
        f1:08:f3:98:41:e7:d8:39:54:76:e8:c4:8e:20:69:63:84:bc
-----BEGIN CERTIFICATE-----
MIICqTCCAk6gAwIBAgIQfQKtUA1S42DHzJ6DGEYS+TAKBggqhkjOPQQDAjBEMRgw
FgYDVQQKEw9HU00gQXNzb2NpYXRpb24xKDAmBgNVBAMTH0dTTSBBc3NvY2lhdGlv
biAtIFJTUDIgUm9vdCBDSTEwHhcNMjQwMjI3MDAwMDAwWhcNMjUwMjI2MjM1OTU5
WjCBlDELMAkGA1UEBhMCQ04xEDAOBgNVBAcMB0JlaWppbmcxJDAiBgNVBAoMG0Jl
aWppbmcgV2F0Y2hkYXRhIENvLiwgTHRkLjEkMCIGA1UECwwbQmVpamluZyBXYXRj
aGRhdGEgQ28uLCBMdGQuMScwJQYDVQQDDB5CZWlqaW5nIFdhdGNoZGF0YSBDby4s
IEx0ZC4gRFAwWTATBgcqhkjOPQIBBggqhkjOPQMBBwNCAARbKyNlAtU0rXXnSFah
K/RGB4GfWsowpEzg8BNdh0dlu9A7XadPr5irJYkZRL+Vk0rJ6NyyL+7ZkjxYHubW
lKWJo4HQMIHNMBcGA1UdIAEB/wQNMAswCQYHZ4ESAQIBBDBNBgNVHR8ERjBEMEKg
QKA+hjxodHRwOi8vZ3NtYS1jcmwuc3ltYXV0aC5jb20vb2ZmbGluZWNhL2dzbWEt
cnNwMi1yb290LWNpMS5jcmwwDgYDVR0PAQH/BAQDAgeAMBMGA1UdEQQMMAqICCsG
AQQBgf1+MB0GA1UdDgQWBBTJh1cyucTBcgRFk/m9r3oBZjRHPzAfBgNVHSMEGDAW
gBSBNw9RJdCx1AjUw7Iy5tJeeVvr+zAKBggqhkjOPQQDAgNJADBGAiEAiYoPe+YD
1nLXKQVkJXhne/i1lIjAaeSg6K2IjLKDpZkCIQD+lEFst0DkPKnQONrIfPEI85hB
59g5VHboxI4gaWOEvA==
-----END CERTIFICATE-----
