Certificate:
    Data:
        Version: 3 (0x2)
        Serial Number:
            30:a9:9d:1c:49:f7:ef:da:ef:8e:3e:47:93:51:00:bb
        Signature Algorithm: ecdsa-with-SHA256
        Issuer:
            C = US
            O = Entrust, Inc.
            OU = See www.entrust.net/legal-terms
            OU = (c) 2016 Entrust, Inc. - for authorized use only
            CN = Entrust eSIM Certification Authority
        Validity
            Not Before: Jul 31 15:38:05 2024 GMT
            Not After : Jul 31 15:38:04 2026 GMT
        Subject:
            C = IN
            ST = Mahārāshtra
            L = Navi Mumbai
            O = Reliance Jio Infocomm Limited
            CN = AirOn V4 PROD JIO
            emailAddress = sunny_mehra@apple.com
        Subject Public Key Info:
            Public Key Algorithm: id-ecPublicKey
                Public-Key: (256 bit)
                pub:
                    04:ed:81:97:89:6d:94:15:54:1d:6f:56:4d:d7:18:
                    78:55:f2:cd:36:6c:ff:ac:60:35:cb:c0:1b:5f:65:
                    80:11:47:be:2f:b2:8d:2e:73:14:a2:26:ae:b9:71:
                    2a:c1:f1:bc:f7:f6:94:51:39:e8:44:8e:e0:b0:ed:
                    5f:03:5e:56:79
                ASN1 OID: prime256v1
                NIST CURVE: P-256
        X509v3 extensions:
            X509v3 Basic Constraints: critical
                CA:FALSE
            X509v3 Subject Key Identifier: 
                A1:A8:12:C8:B4:52:94:71:BE:B5:FC:AA:62:8D:56:1C:B2:70:AB:D6
            X509v3 Authority Key Identifier: 
                16:70:4B:7F:35:1E:36:07:F1:8C:4B:70:00:5C:3A:00:3D:FD:41:4A
            X509v3 CRL Distribution Points: 
                Full Name:
                  URI:http://crl.entrust.net/entesimca.crl
            X509v3 Subject Alternative Name: 
                Registered ID:1.3.6.1.4.1.43565.104.4.2
            X509v3 Key Usage: critical
                Digital Signature
            X509v3 Certificate Policies: critical
                Policy: 2.23.146.1.2.1.4
    Signature Algorithm: ecdsa-with-SHA256
    Signature Value:
        30:44:02:20:18:21:d1:8f:47:f7:a9:5f:6e:5f:39:35:9d:d1:
        48:eb:9d:a6:03:24:56:25:8d:57:22:d8:ae:27:a8:a8:e4:a0:
        02:20:72:70:4f:d7:43:bb:98:8f:3e:ea:ac:fd:ef:b3:62:c7:
        f0:5b:cc:95:d9:76:f1:51:37:8c:1e:c3:59:50:2b:d2
-----BEGIN CERTIFICATE-----
MIIDJzCCAs6gAwIBAgIQMKmdHEn379rvjj5Hk1EAuzAKBggqhkjOPQQDAjCBuTEL
MAkGA1UEBhMCVVMxFjAUBgNVBAoTDUVudHJ1c3QsIEluYy4xKDAmBgNVBAsTH1Nl
ZSB3d3cuZW50cnVzdC5uZXQvbGVnYWwtdGVybXMxOTA3BgNVBAsTMChjKSAyMDE2
IEVudHJ1c3QsIEluYy4gLSBmb3IgYXV0aG9yaXplZCB1c2Ugb25seTEtMCsGA1UE
AxMkRW50cnVzdCBlU0lNIENlcnRpZmljYXRpb24gQXV0aG9yaXR5MB4XDTI0MDcz
MTE1MzgwNVoXDTI2MDczMTE1MzgwNFowgaUxCzAJBgNVBAYTAklOMRYwFAYDVQQI
DA1NYWjEgXLEgXNodHJhMRQwEgYDVQQHEwtOYXZpIE11bWJhaTEmMCQGA1UEChMd
UmVsaWFuY2UgSmlvIEluZm9jb21tIExpbWl0ZWQxGjAYBgNVBAMTEUFpck9uIFY0
IFBST0QgSklPMSQwIgYJKoZIhvcNAQkBFhVzdW5ueV9tZWhyYUBhcHBsZS5jb20w
WTATBgcqhkjOPQIBBggqhkjOPQMBBwNCAATtgZeJbZQVVB1vVk3XGHhV8s02bP+s
YDXLwBtfZYARR74vso0ucxSiJq65cSrB8bz39pRROehEjuCw7V8DXlZ5o4HJMIHG
MAwGA1UdEwEB/wQCMAAwHQYDVR0OBBYEFKGoEsi0UpRxvrX8qmKNVhyycKvWMB8G
A1UdIwQYMBaAFBZwS381HjYH8YxLcABcOgA9/UFKMDUGA1UdHwQuMCwwKqAooCaG
JGh0dHA6Ly9jcmwuZW50cnVzdC5uZXQvZW50ZXNpbWNhLmNybDAWBgNVHREEDzAN
iAsrBgEEAYLULWgEAjAOBgNVHQ8BAf8EBAMCB4AwFwYDVR0gAQH/BA0wCzAJBgdn
gRIBAgEEMAoGCCqGSM49BAMCA0cAMEQCIBgh0Y9H96lfbl85NZ3RSOudpgMkViWN
VyLYrieoqOSgAiBycE/XQ7uYjz7qrP3vs2LH8FvMldl28VE3jB7DWVAr0g==
-----END CERTIFICATE-----
