Certificate:
    Data:
        Version: 3 (0x2)
        Serial Number:
            07:d9:65:32:82:28:0e:3f:1e:5f:93:c2:c0:14:eb:78
        Signature Algorithm: ecdsa-with-SHA256
        Issuer: C=US, O=Entrust, Inc., OU=See www.entrust.net/legal-terms, OU=(c) 2016 Entrust, Inc. - for authorized use only, CN=Entrust eSIM Certification Authority
        Validity
            Not Before: Aug  9 16:31:15 2021 GMT
            Not After : Aug  9 16:31:14 2024 GMT
        Subject: C=IN, ST=Maharashtra, L=Navi Mumbai, O=Reliance Jio Infocomm Limited, CN=AirOn V4 PROD JIO, emailAddress=JioDevices.SMDP@ril.com
        Subject Public Key Info:
            Public Key Algorithm: id-ecPublicKey
                Public-Key: (256 bit)
                pub:
                    04:ed:81:97:89:6d:94:15:54:1d:6f:56:4d:d7:18:
                    78:55:f2:cd:36:6c:ff:ac:60:35:cb:c0:1b:5f:65:
                    80:11:47:be:2f:b2:8d:2e:73:14:a2:26:ae:b9:71:
                    2a:c1:f1:bc:f7:f6:94:51:39:e8:44:8e:e0:b0:ed:
                    5f:03:5e:56:79
                ASN1 OID: prime256v1
                NIST CURVE: P-256
        X509v3 extensions:
            X509v3 Basic Constraints: critical
                CA:FALSE
            X509v3 Subject Key Identifier: 
                A1:A8:12:C8:B4:52:94:71:BE:B5:FC:AA:62:8D:56:1C:B2:70:AB:D6
            X509v3 Authority Key Identifier: 
                16:70:4B:7F:35:1E:36:07:F1:8C:4B:70:00:5C:3A:00:3D:FD:41:4A
            X509v3 CRL Distribution Points: 
                Full Name:
                  URI:http://crl.entrust.net/entesimca.crl
            X509v3 Subject Alternative Name: 
                Registered ID:1.3.6.1.4.1.43565.104.4.2
            X509v3 Key Usage: critical
                Digital Signature
            X509v3 Certificate Policies: critical
                Policy: 2.23.146.1.2.1.4
    Signature Algorithm: ecdsa-with-SHA256
    Signature Value:
        30:45:02:21:00:ef:34:0f:84:ec:ec:5f:79:94:9c:de:ed:fa:
        b0:27:a4:a0:fa:37:63:46:46:2f:07:08:d5:1e:ec:e9:29:70:
        68:02:20:4c:af:55:44:7e:94:d7:2d:8c:c3:d8:48:58:2a:f2:
        46:13:d6:fe:d4:16:b1:22:91:22:9c:4e:28:36:ee:51:99
-----BEGIN CERTIFICATE-----
MIIDKDCCAs6gAwIBAgIQB9llMoIoDj8eX5PCwBTreDAKBggqhkjOPQQDAjCBuTEL
MAkGA1UEBhMCVVMxFjAUBgNVBAoTDUVudHJ1c3QsIEluYy4xKDAmBgNVBAsTH1Nl
ZSB3d3cuZW50cnVzdC5uZXQvbGVnYWwtdGVybXMxOTA3BgNVBAsTMChjKSAyMDE2
IEVudHJ1c3QsIEluYy4gLSBmb3IgYXV0aG9yaXplZCB1c2Ugb25seTEtMCsGA1UE
AxMkRW50cnVzdCBlU0lNIENlcnRpZmljYXRpb24gQXV0aG9yaXR5MB4XDTIxMDgw
OTE2MzExNVoXDTI0MDgwOTE2MzExNFowgaUxCzAJBgNVBAYTAklOMRQwEgYDVQQI
EwtNYWhhcmFzaHRyYTEUMBIGA1UEBxMLTmF2aSBNdW1iYWkxJjAkBgNVBAoTHVJl
bGlhbmNlIEppbyBJbmZvY29tbSBMaW1pdGVkMRowGAYDVQQDExFBaXJPbiBWNCBQ
Uk9EIEpJTzEmMCQGCSqGSIb3DQEJARYXSmlvRGV2aWNlcy5TTURQQHJpbC5jb20w
WTATBgcqhkjOPQIBBggqhkjOPQMBBwNCAATtgZeJbZQVVB1vVk3XGHhV8s02bP+s
YDXLwBtfZYARR74vso0ucxSiJq65cSrB8bz39pRROehEjuCw7V8DXlZ5o4HJMIHG
MAwGA1UdEwEB/wQCMAAwHQYDVR0OBBYEFKGoEsi0UpRxvrX8qmKNVhyycKvWMB8G
A1UdIwQYMBaAFBZwS381HjYH8YxLcABcOgA9/UFKMDUGA1UdHwQuMCwwKqAooCaG
JGh0dHA6Ly9jcmwuZW50cnVzdC5uZXQvZW50ZXNpbWNhLmNybDAWBgNVHREEDzAN
iAsrBgEEAYLULWgEAjAOBgNVHQ8BAf8EBAMCB4AwFwYDVR0gAQH/BA0wCzAJBgdn
gRIBAgEEMAoGCCqGSM49BAMCA0gAMEUCIQDvNA+E7OxfeZSc3u36sCekoPo3Y0ZG
LwcI1R7s6SlwaAIgTK9VRH6U1y2Mw9hIWCryRhPW/tQWsSKRIpxOKDbuUZk=
-----END CERTIFICATE-----
