Certificate:
    Data:
        Version: 3 (0x2)
        Serial Number:
            42:f9:c8:4c:ba:13:62:49:be:f6:03:66:0b:8e:f7:a4
        Signature Algorithm: ecdsa-with-SHA256
        Issuer:
            O = GSM Association
            CN = GSM Association - RSP2 Root CI1
        Validity
            Not Before: Sep 26 00:00:00 2024 GMT
            Not After : Sep 25 23:59:59 2027 GMT
        Subject:
            C = IN
            L = Mumbai
            ST = MH
            O = Reliance Jio Infocomm Limited
            CN = AirOn V4 PROD JIO
            OU = JIO
        Subject Public Key Info:
            Public Key Algorithm: id-ecPublicKey
                Public-Key: (256 bit)
                pub:
                    04:7b:b4:51:ce:94:89:b2:3f:83:e0:40:72:e2:ad:
                    f4:63:06:0a:26:bd:10:4c:fb:65:b0:c5:da:af:00:
                    d3:c2:a1:b1:c1:6b:ce:44:b9:4f:f1:86:11:12:5c:
                    62:bf:c0:e5:64:a9:6f:de:99:5f:01:1a:c2:08:a5:
                    f0:8f:cc:46:80
                ASN1 OID: prime256v1
                NIST CURVE: P-256
        X509v3 extensions:
            X509v3 Certificate Policies: critical
                Policy: 2.23.146.1.2.1.4
            X509v3 CRL Distribution Points: 
                Full Name:
                  URI:http://gsma-crl.symauth.com/offlineca/gsma-rsp2-root-ci1.crl
            X509v3 Key Usage: critical
                Digital Signature
            X509v3 Subject Alternative Name: 
                Registered ID:1.3.6.1.4.1.43565.104.4.2
            X509v3 Subject Key Identifier: 
                1C:3C:49:88:D8:95:BD:5A:BC:5F:4E:E3:F4:9F:0C:48:FA:6C:AC:1D
            X509v3 Authority Key Identifier: 
                81:37:0F:51:25:D0:B1:D4:08:D4:C3:B2:32:E6:D2:5E:79:5B:EB:FB
    Signature Algorithm: ecdsa-with-SHA256
    Signature Value:
        30:45:02:20:39:69:54:26:83:d2:80:dc:3e:38:ae:64:39:d9:
        09:68:c0:d0:f4:c6:1c:3d:c4:30:68:88:c7:3c:58:38:c3:d7:
        02:21:00:83:93:d6:e3:46:b8:aa:e6:83:b5:ad:11:40:8a:28:
        a1:fd:a8:b8:fb:82:0a:d0:d3:20:04:50:ff:94:43:9e:c3
-----BEGIN CERTIFICATE-----
MIICkzCCAjmgAwIBAgIQQvnITLoTYkm+9gNmC473pDAKBggqhkjOPQQDAjBEMRgw
FgYDVQQKEw9HU00gQXNzb2NpYXRpb24xKDAmBgNVBAMTH0dTTSBBc3NvY2lhdGlv
biAtIFJTUDIgUm9vdCBDSTEwHhcNMjQwOTI2MDAwMDAwWhcNMjcwOTI1MjM1OTU5
WjB9MQswCQYDVQQGEwJJTjEPMA0GA1UEBxMGTXVtYmFpMQswCQYDVQQIEwJNSDEm
MCQGA1UEChMdUmVsaWFuY2UgSmlvIEluZm9jb21tIExpbWl0ZWQxGjAYBgNVBAMT
EUFpck9uIFY0IFBST0QgSklPMQwwCgYDVQQLEwNKSU8wWTATBgcqhkjOPQIBBggq
hkjOPQMBBwNCAAR7tFHOlImyP4PgQHLirfRjBgomvRBM+2WwxdqvANPCobHBa85E
uU/xhhESXGK/wOVkqW/emV8BGsIIpfCPzEaAo4HTMIHQMBcGA1UdIAEB/wQNMAsw
CQYHZ4ESAQIBBDBNBgNVHR8ERjBEMEKgQKA+hjxodHRwOi8vZ3NtYS1jcmwuc3lt
YXV0aC5jb20vb2ZmbGluZWNhL2dzbWEtcnNwMi1yb290LWNpMS5jcmwwDgYDVR0P
AQH/BAQDAgeAMBYGA1UdEQQPMA2ICysGAQQBgtQtaAQCMB0GA1UdDgQWBBQcPEmI
2JW9WrxfTuP0nwxI+mysHTAfBgNVHSMEGDAWgBSBNw9RJdCx1AjUw7Iy5tJeeVvr
+zAKBggqhkjOPQQDAgNIADBFAiA5aVQmg9KA3D44rmQ52QlowND0xhw9xDBoiMc8
WDjD1wIhAIOT1uNGuKrmg7WtEUCKKKH9qLj7ggrQ0yAEUP+UQ57D
-----END CERTIFICATE-----
