Certificate:
    Data:
        Version: 3 (0x2)
        Serial Number:
            42:d0:ac:9f:1d:6e:94:73:12:2a:03:bc:e5:ed:d3:16
        Signature Algorithm: ecdsa-with-SHA256
        Issuer: O=GSM Association, CN=GSM Association - RSP2 Root CI1
        Validity
            Not Before: Oct  5 00:00:00 2021 GMT
            Not After : Oct  4 23:59:59 2024 GMT
        Subject: C=IN, L=Mumbai, ST=MH, O=Reliance Jio Infocomm Limited, CN=AirOn V4 PROD JIO, OU=JIO
        Subject Public Key Info:
            Public Key Algorithm: id-ecPublicKey
                Public-Key: (256 bit)
                pub:
                    04:7b:b4:51:ce:94:89:b2:3f:83:e0:40:72:e2:ad:
                    f4:63:06:0a:26:bd:10:4c:fb:65:b0:c5:da:af:00:
                    d3:c2:a1:b1:c1:6b:ce:44:b9:4f:f1:86:11:12:5c:
                    62:bf:c0:e5:64:a9:6f:de:99:5f:01:1a:c2:08:a5:
                    f0:8f:cc:46:80
                ASN1 OID: prime256v1
                NIST CURVE: P-256
        X509v3 extensions:
            X509v3 Certificate Policies: critical
                Policy: 2.23.146.1.2.1.4
            X509v3 CRL Distribution Points: 
                Full Name:
                  URI:http://gsma-crl.symauth.com/offlineca/gsma-rsp2-root-ci1.crl
            X509v3 Key Usage: critical
                Digital Signature
            X509v3 Subject Alternative Name: 
                Registered ID:1.3.6.1.4.1.43565.104.4.2
            X509v3 Subject Key Identifier: 
                1C:3C:49:88:D8:95:BD:5A:BC:5F:4E:E3:F4:9F:0C:48:FA:6C:AC:1D
            X509v3 Authority Key Identifier: 
                81:37:0F:51:25:D0:B1:D4:08:D4:C3:B2:32:E6:D2:5E:79:5B:EB:FB
    Signature Algorithm: ecdsa-with-SHA256
    Signature Value:
        30:46:02:21:00:d6:2e:57:06:dd:23:e5:74:04:43:6a:44:89:
        e6:af:e3:50:81:0c:af:1a:f2:6a:0a:5f:15:99:90:08:c2:34:
        ae:02:21:00:e1:9e:25:fc:5b:21:40:8b:f9:7c:bf:5c:9e:0c:
        d6:6e:e3:1c:ab:9a:07:85:fa:7a:06:91:e6:8d:4f:78:03:11
-----BEGIN CERTIFICATE-----
MIIClDCCAjmgAwIBAgIQQtCsnx1ulHMSKgO85e3TFjAKBggqhkjOPQQDAjBEMRgw
FgYDVQQKEw9HU00gQXNzb2NpYXRpb24xKDAmBgNVBAMTH0dTTSBBc3NvY2lhdGlv
biAtIFJTUDIgUm9vdCBDSTEwHhcNMjExMDA1MDAwMDAwWhcNMjQxMDA0MjM1OTU5
WjB9MQswCQYDVQQGEwJJTjEPMA0GA1UEBxMGTXVtYmFpMQswCQYDVQQIEwJNSDEm
MCQGA1UEChMdUmVsaWFuY2UgSmlvIEluZm9jb21tIExpbWl0ZWQxGjAYBgNVBAMT
EUFpck9uIFY0IFBST0QgSklPMQwwCgYDVQQLEwNKSU8wWTATBgcqhkjOPQIBBggq
hkjOPQMBBwNCAAR7tFHOlImyP4PgQHLirfRjBgomvRBM+2WwxdqvANPCobHBa85E
uU/xhhESXGK/wOVkqW/emV8BGsIIpfCPzEaAo4HTMIHQMBcGA1UdIAEB/wQNMAsw
CQYHZ4ESAQIBBDBNBgNVHR8ERjBEMEKgQKA+hjxodHRwOi8vZ3NtYS1jcmwuc3lt
YXV0aC5jb20vb2ZmbGluZWNhL2dzbWEtcnNwMi1yb290LWNpMS5jcmwwDgYDVR0P
AQH/BAQDAgeAMBYGA1UdEQQPMA2ICysGAQQBgtQtaAQCMB0GA1UdDgQWBBQcPEmI
2JW9WrxfTuP0nwxI+mysHTAfBgNVHSMEGDAWgBSBNw9RJdCx1AjUw7Iy5tJeeVvr
+zAKBggqhkjOPQQDAgNJADBGAiEA1i5XBt0j5XQEQ2pEieav41CBDK8a8moKXxWZ
kAjCNK4CIQDhniX8WyFAi/l8v1yeDNZu4xyrmgeF+noGkeaNT3gDEQ==
-----END CERTIFICATE-----
