Certificate:
    Data:
        Version: 3 (0x2)
        Serial Number:
            66:84:fe:ae:f3:21:5b:cd:20:27:19:96:ed:33:5c:11
        Signature Algorithm: ecdsa-with-SHA256
        Issuer: O=GSM Association, CN=GSM Association - RSP2 Root CI1
        Validity
            Not Before: Jul  6 00:00:00 2022 GMT
            Not After : Jul  5 23:59:59 2025 GMT
        Subject: C=US, L=Virginia, O=Thales SA, CN=VZW GSMA UE4 SMDS
        Subject Public Key Info:
            Public Key Algorithm: id-ecPublicKey
                Public-Key: (256 bit)
                pub:
                    04:99:ea:4e:f1:23:5d:47:54:86:b2:22:50:b5:7b:
                    17:25:df:d0:c8:d5:a1:30:9c:e2:7d:03:b6:6a:bf:
                    e4:97:0e:12:25:ae:9b:bb:b4:d1:dd:41:47:cc:a6:
                    03:66:73:30:f6:6b:c3:9d:ca:84:94:ff:58:f2:12:
                    c9:77:85:cb:23
                ASN1 OID: prime256v1
                NIST CURVE: P-256
        X509v3 extensions:
            X509v3 Certificate Policies: critical
                Policy: 2.23.146.1.2.1.7
            X509v3 CRL Distribution Points: 
                Full Name:
                  URI:http://gsma-crl.symauth.com/offlineca/gsma-rsp2-root-ci1.crl
            X509v3 Key Usage: critical
                Digital Signature
            X509v3 Subject Alternative Name: 
                Registered ID:1.3.6.1.4.1.31746.1.220.300.106
            X509v3 Subject Key Identifier: 
                31:3C:7A:83:27:AE:52:CF:09:BD:13:02:D2:F9:72:37:D1:63:B8:27
            X509v3 Authority Key Identifier: 
                81:37:0F:51:25:D0:B1:D4:08:D4:C3:B2:32:E6:D2:5E:79:5B:EB:FB
    Signature Algorithm: ecdsa-with-SHA256
    Signature Value:
        30:46:02:21:00:83:4e:fb:a1:5f:82:a7:44:be:f0:80:1a:f6:
        ab:ae:a7:eb:b5:f6:c4:7e:62:17:b7:5c:c8:8b:03:bd:fb:04:
        41:02:21:00:83:ca:a5:83:00:9f:c6:b6:5e:75:3c:66:b7:cd:
        c8:c9:dc:c9:29:8f:0b:de:24:57:ec:35:1a:f7:fb:b6:a5:46
-----BEGIN CERTIFICATE-----
MIICajCCAg+gAwIBAgIQZoT+rvMhW80gJxmW7TNcETAKBggqhkjOPQQDAjBEMRgw
FgYDVQQKEw9HU00gQXNzb2NpYXRpb24xKDAmBgNVBAMTH0dTTSBBc3NvY2lhdGlv
biAtIFJTUDIgUm9vdCBDSTEwHhcNMjIwNzA2MDAwMDAwWhcNMjUwNzA1MjM1OTU5
WjBQMQswCQYDVQQGEwJVUzERMA8GA1UEBwwIVmlyZ2luaWExEjAQBgNVBAoMCVRo
YWxlcyBTQTEaMBgGA1UEAwwRVlpXIEdTTUEgVUU0IFNNRFMwWTATBgcqhkjOPQIB
BggqhkjOPQMBBwNCAASZ6k7xI11HVIayIlC1excl39DI1aEwnOJ9A7Zqv+SXDhIl
rpu7tNHdQUfMpgNmczD2a8OdyoSU/1jyEsl3hcsjo4HWMIHTMBcGA1UdIAEB/wQN
MAswCQYHZ4ESAQIBBzBNBgNVHR8ERjBEMEKgQKA+hjxodHRwOi8vZ3NtYS1jcmwu
c3ltYXV0aC5jb20vb2ZmbGluZWNhL2dzbWEtcnNwMi1yb290LWNpMS5jcmwwDgYD
VR0PAQH/BAQDAgeAMBkGA1UdEQQSMBCIDisGAQQBgfgCAYFcgixqMB0GA1UdDgQW
BBQxPHqDJ65Szwm9EwLS+XI30WO4JzAfBgNVHSMEGDAWgBSBNw9RJdCx1AjUw7Iy
5tJeeVvr+zAKBggqhkjOPQQDAgNJADBGAiEAg077oV+Cp0S+8IAa9quup+u19sR+
Yhe3XMiLA737BEECIQCDyqWDAJ/Gtl51PGa3zcjJ3MkpjwveJFfsNRr3+7alRg==
-----END CERTIFICATE-----
