Certificate:
    Data:
        Version: 3 (0x2)
        Serial Number:
            65:ef:d7:c8:c9:39:b9:ef:ae:17:2f:17:61:dd:9a:c9
        Signature Algorithm: ecdsa-with-SHA256
        Issuer: O=GSM Association, CN=GSM Association - RSP2 Root CI1
        Validity
            Not Before: Jul 26 00:00:00 2023 GMT
            Not After : Jul 25 23:59:59 2026 GMT
        Subject: C=RU, L=Moscow, O=A1 Systems LLC, OU=A1S RSP, CN=A1S DPplus
        Subject Public Key Info:
            Public Key Algorithm: id-ecPublicKey
                Public-Key: (256 bit)
                pub:
                    04:ce:be:3f:60:bc:50:5b:07:9f:7b:31:d3:32:9d:
                    9c:e3:bf:ff:c7:ea:80:26:26:b5:19:d8:63:8b:12:
                    e7:f7:4c:ed:62:22:f3:e2:b3:41:8d:f5:16:f2:fd:
                    bc:fb:17:09:01:30:df:4f:a5:48:2a:b8:d7:1f:cc:
                    93:fd:12:14:43
                ASN1 OID: prime256v1
                NIST CURVE: P-256
        X509v3 extensions:
            X509v3 Subject Alternative Name: 
                Registered ID:1.3.6.1.4.1.34371.77.1.1
            X509v3 Certificate Policies: critical
                Policy: 2.23.146.1.2.1.4
            X509v3 CRL Distribution Points: 
                Full Name:
                  URI:http://gsma-crl.symauth.com/offlineca/gsma-rsp2-root-ci1.crl
            X509v3 Key Usage: critical
                Digital Signature
            X509v3 Subject Key Identifier: 
                31:50:CF:6A:4E:EB:8C:01:48:24:5F:95:A4:36:FC:A4:7C:22:E5:07
            X509v3 Authority Key Identifier: 
                81:37:0F:51:25:D0:B1:D4:08:D4:C3:B2:32:E6:D2:5E:79:5B:EB:FB
    Signature Algorithm: ecdsa-with-SHA256
    Signature Value:
        30:45:02:20:29:15:96:02:03:8b:f1:ba:5f:97:60:6e:f8:3e:
        ba:72:a0:69:ee:54:06:53:02:e8:c0:d7:a1:43:18:27:9d:07:
        02:21:00:b4:81:81:e3:f3:8a:6d:12:b0:e3:8f:8e:f2:6b:46:
        dc:c5:33:b9:3c:5e:77:49:7f:56:ef:17:4f:e1:61:00:e2
-----BEGIN CERTIFICATE-----
MIICdDCCAhqgAwIBAgIQZe/XyMk5ue+uFy8XYd2ayTAKBggqhkjOPQQDAjBEMRgw
FgYDVQQKEw9HU00gQXNzb2NpYXRpb24xKDAmBgNVBAMTH0dTTSBBc3NvY2lhdGlv
biAtIFJTUDIgUm9vdCBDSTEwHhcNMjMwNzI2MDAwMDAwWhcNMjYwNzI1MjM1OTU5
WjBeMQswCQYDVQQGEwJSVTEPMA0GA1UEBwwGTW9zY293MRcwFQYDVQQKDA5BMSBT
eXN0ZW1zIExMQzEQMA4GA1UECwwHQTFTIFJTUDETMBEGA1UEAwwKQTFTIERQcGx1
czBZMBMGByqGSM49AgEGCCqGSM49AwEHA0IABM6+P2C8UFsHn3sx0zKdnOO//8fq
gCYmtRnYY4sS5/dM7WIi8+KzQY31FvL9vPsXCQEw30+lSCq41x/Mk/0SFEOjgdMw
gdAwFgYDVR0RBA8wDYgLKwYBBAGCjENNAQEwFwYDVR0gAQH/BA0wCzAJBgdngRIB
AgEEME0GA1UdHwRGMEQwQqBAoD6GPGh0dHA6Ly9nc21hLWNybC5zeW1hdXRoLmNv
bS9vZmZsaW5lY2EvZ3NtYS1yc3AyLXJvb3QtY2kxLmNybDAOBgNVHQ8BAf8EBAMC
B4AwHQYDVR0OBBYEFDFQz2pO64wBSCRflaQ2/KR8IuUHMB8GA1UdIwQYMBaAFIE3
D1El0LHUCNTDsjLm0l55W+v7MAoGCCqGSM49BAMCA0gAMEUCICkVlgIDi/G6X5dg
bvg+unKgae5UBlMC6MDXoUMYJ50HAiEAtIGB4/OKbRKw44+O8mtG3MUzuTxed0l/
Vu8XT+FhAOI=
-----END CERTIFICATE-----
