Certificate:
    Data:
        Version: 3 (0x2)
        Serial Number:
            20:c8:89:d8:f5:0d:74:10:93:71:35:3e:7d:35:ff:64
        Signature Algorithm: ecdsa-with-SHA256
        Issuer: O=GSM Association, CN=GSM Association - RSP2 Root CI1
        Validity
            Not Before: Jan 10 00:00:00 2024 GMT
            Not After : Jan  9 23:59:59 2027 GMT
        Subject: C=CN, L=WuHan, O=Wuhan Tianyu Information Industry CO.LTD, CN=TY CMS SM-DP+ DPauth
        Subject Public Key Info:
            Public Key Algorithm: id-ecPublicKey
                Public-Key: (256 bit)
                pub:
                    04:87:73:2f:74:35:b9:93:9d:0a:2c:2c:d0:f8:5b:
                    95:ca:fb:55:57:1d:10:51:3f:ce:5c:38:05:9c:8a:
                    9e:37:78:e5:68:dd:64:27:ab:cf:1e:c9:87:64:b0:
                    e4:d4:6c:ae:10:8f:a4:49:21:3f:66:fe:4f:4f:11:
                    99:c1:0e:09:96
                ASN1 OID: prime256v1
                NIST CURVE: P-256
        X509v3 extensions:
            X509v3 Certificate Policies: critical
                Policy: 2.23.146.1.2.1.4
            X509v3 CRL Distribution Points: 
                Full Name:
                  URI:http://gsma-crl.symauth.com/offlineca/gsma-rsp2-root-ci1.crl
            X509v3 Key Usage: critical
                Digital Signature
            X509v3 Subject Alternative Name: 
                Registered ID:1.3.6.1.4.1.36608.1.4
            X509v3 Subject Key Identifier: 
                B1:00:65:FF:9A:A7:6C:B4:F2:3D:6D:88:34:FC:04:37:F2:A5:6D:AA
            X509v3 Authority Key Identifier: 
                81:37:0F:51:25:D0:B1:D4:08:D4:C3:B2:32:E6:D2:5E:79:5B:EB:FB
    Signature Algorithm: ecdsa-with-SHA256
    Signature Value:
        30:45:02:20:03:c9:ae:e6:7a:7d:8b:39:28:cc:02:e3:46:d6:
        b0:79:58:00:1c:0a:06:3d:d6:78:e7:78:b8:49:ff:75:49:a0:
        02:21:00:fa:34:2d:8b:60:a8:55:06:cd:d1:42:0c:c3:2e:ad:
        78:82:28:62:4b:06:96:4b:6e:61:c6:18:66:68:a2:f4:3b
-----BEGIN CERTIFICATE-----
MIIChDCCAiqgAwIBAgIQIMiJ2PUNdBCTcTU+fTX/ZDAKBggqhkjOPQQDAjBEMRgw
FgYDVQQKEw9HU00gQXNzb2NpYXRpb24xKDAmBgNVBAMTH0dTTSBBc3NvY2lhdGlv
biAtIFJTUDIgUm9vdCBDSTEwHhcNMjQwMTEwMDAwMDAwWhcNMjcwMTA5MjM1OTU5
WjBvMQswCQYDVQQGEwJDTjEOMAwGA1UEBxMFV3VIYW4xMTAvBgNVBAoTKFd1aGFu
IFRpYW55dSBJbmZvcm1hdGlvbiBJbmR1c3RyeSBDTy5MVEQxHTAbBgNVBAMTFFRZ
IENNUyBTTS1EUCsgRFBhdXRoMFkwEwYHKoZIzj0CAQYIKoZIzj0DAQcDQgAEh3Mv
dDW5k50KLCzQ+FuVyvtVVx0QUT/OXDgFnIqeN3jlaN1kJ6vPHsmHZLDk1GyuEI+k
SSE/Zv5PTxGZwQ4JlqOB0jCBzzAXBgNVHSABAf8EDTALMAkGB2eBEgECAQQwTQYD
VR0fBEYwRDBCoECgPoY8aHR0cDovL2dzbWEtY3JsLnN5bWF1dGguY29tL29mZmxp
bmVjYS9nc21hLXJzcDItcm9vdC1jaTEuY3JsMA4GA1UdDwEB/wQEAwIHgDAVBgNV
HREEDjAMiAorBgEEAYKeAAEEMB0GA1UdDgQWBBSxAGX/mqdstPI9bYg0/AQ38qVt
qjAfBgNVHSMEGDAWgBSBNw9RJdCx1AjUw7Iy5tJeeVvr+zAKBggqhkjOPQQDAgNI
ADBFAiADya7men2LOSjMAuNG1rB5WAAcCgY91njneLhJ/3VJoAIhAPo0LYtgqFUG
zdFCDMMurXiCKGJLBpZLbmHGGGZoovQ7
-----END CERTIFICATE-----
