Certificate:
    Data:
        Version: 3 (0x2)
        Serial Number:
            5b:1c:22:5f:3c:b0:be:9a:d6:38:a8:a9:59:b2:a9:31
        Signature Algorithm: ecdsa-with-SHA256
        Issuer:
            C = US
            O = Entrust, Inc.
            OU = See www.entrust.net/legal-terms
            OU = (c) 2016 Entrust, Inc. - for authorized use only
            CN = Entrust eSIM Certification Authority
        Validity
            Not Before: Jul  5 15:38:17 2023 GMT
            Not After : Jul  5 15:38:16 2025 GMT
        Subject:
            C = US
            ST = Illinois
            L = Lisle
            O = Valid (Valid USA Inc.)
            CN = VALID SM-DPplus
            emailAddress = jbautistamoran@apple.com
        Subject Public Key Info:
            Public Key Algorithm: id-ecPublicKey
                Public-Key: (256 bit)
                pub:
                    04:c1:e5:79:10:39:a9:43:b2:2f:e2:8a:6a:d5:4e:
                    e9:f0:01:db:01:6e:46:9e:af:5c:1b:69:82:a9:ac:
                    ae:6c:bf:ba:6f:f7:de:19:af:9f:d5:c1:d1:b3:09:
                    c0:c5:6e:0b:b7:51:fe:c6:0a:93:61:7a:76:8c:6a:
                    b2:4c:81:de:38
                ASN1 OID: prime256v1
                NIST CURVE: P-256
        X509v3 extensions:
            X509v3 Basic Constraints: critical
                CA:FALSE
            X509v3 Subject Key Identifier: 
                4B:C0:A4:CB:E8:BA:2E:99:95:46:D4:3F:CF:4D:7E:A6:9A:2F:AC:B7
            X509v3 Authority Key Identifier: 
                16:70:4B:7F:35:1E:36:07:F1:8C:4B:70:00:5C:3A:00:3D:FD:41:4A
            X509v3 CRL Distribution Points: 
                Full Name:
                  URI:http://crl.entrust.net/entesimca.crl
            X509v3 Subject Alternative Name: 
                Registered ID:1.3.6.1.4.1.45516.61
            X509v3 Key Usage: critical
                Digital Signature
            X509v3 Certificate Policies: critical
                Policy: 2.23.146.1.2.1.4
    Signature Algorithm: ecdsa-with-SHA256
    Signature Value:
        30:46:02:21:00:e8:5b:b4:14:f1:a8:5a:68:2f:e4:39:f2:9c:
        61:22:00:a5:65:32:1a:e7:84:75:31:ef:58:2f:aa:11:63:4a:
        8f:02:21:00:ec:9f:6e:0f:da:4f:8a:f6:88:f4:c7:c3:cb:a7:
        d2:ac:0e:82:e5:88:84:75:53:1e:8a:57:8f:ac:f8:75:4e:92
-----BEGIN CERTIFICATE-----
MIIDFjCCArugAwIBAgIQWxwiXzywvprWOKipWbKpMTAKBggqhkjOPQQDAjCBuTEL
MAkGA1UEBhMCVVMxFjAUBgNVBAoTDUVudHJ1c3QsIEluYy4xKDAmBgNVBAsTH1Nl
ZSB3d3cuZW50cnVzdC5uZXQvbGVnYWwtdGVybXMxOTA3BgNVBAsTMChjKSAyMDE2
IEVudHJ1c3QsIEluYy4gLSBmb3IgYXV0aG9yaXplZCB1c2Ugb25seTEtMCsGA1UE
AxMkRW50cnVzdCBlU0lNIENlcnRpZmljYXRpb24gQXV0aG9yaXR5MB4XDTIzMDcw
NTE1MzgxN1oXDTI1MDcwNTE1MzgxNlowgZQxCzAJBgNVBAYTAlVTMREwDwYDVQQI
EwhJbGxpbm9pczEOMAwGA1UEBxMFTGlzbGUxHzAdBgNVBAoTFlZhbGlkIChWYWxp
ZCBVU0EgSW5jLikxGDAWBgNVBAMTD1ZBTElEIFNNLURQcGx1czEnMCUGCSqGSIb3
DQEJARYYamJhdXRpc3RhbW9yYW5AYXBwbGUuY29tMFkwEwYHKoZIzj0CAQYIKoZI
zj0DAQcDQgAEweV5EDmpQ7Iv4opq1U7p8AHbAW5Gnq9cG2mCqayubL+6b/feGa+f
1cHRswnAxW4Lt1H+xgqTYXp2jGqyTIHeOKOBxzCBxDAMBgNVHRMBAf8EAjAAMB0G
A1UdDgQWBBRLwKTL6LoumZVG1D/PTX6mmi+stzAfBgNVHSMEGDAWgBQWcEt/NR42
B/GMS3AAXDoAPf1BSjA1BgNVHR8ELjAsMCqgKKAmhiRodHRwOi8vY3JsLmVudHJ1
c3QubmV0L2VudGVzaW1jYS5jcmwwFAYDVR0RBA0wC4gJKwYBBAGC40w9MA4GA1Ud
DwEB/wQEAwIHgDAXBgNVHSABAf8EDTALMAkGB2eBEgECAQQwCgYIKoZIzj0EAwID
SQAwRgIhAOhbtBTxqFpoL+Q58pxhIgClZTIa54R1Me9YL6oRY0qPAiEA7J9uD9pP
ivaI9MfDy6fSrA6C5YiEdVMeilePrPh1TpI=
-----END CERTIFICATE-----
