Certificate:
    Data:
        Version: 3 (0x2)
        Serial Number:
            43:df:4e:05:79:05:19:50:2b:97:4e:34:41:64:bf:6b
        Signature Algorithm: ecdsa-with-SHA256
        Issuer:
            O = GSM Association
            CN = GSM Association - RSP2 Root CI1
        Validity
            Not Before: Dec 14 00:00:00 2022 GMT
            Not After : Dec 13 23:59:59 2025 GMT
        Subject:
            C = US
            O = VALID USA INC.
            OU = SWS Valid USA
            CN = VALID SM-DPplus
        Subject Public Key Info:
            Public Key Algorithm: id-ecPublicKey
                Public-Key: (256 bit)
                pub:
                    04:c6:4f:25:f4:a9:ae:53:6c:cc:56:bb:e8:01:9c:
                    eb:04:d3:b8:b3:c7:bb:44:85:06:2b:1b:e9:76:13:
                    9b:ad:8e:d7:1e:d0:60:1d:1c:3e:ca:1c:45:41:f9:
                    f2:25:ea:1b:a6:3d:68:80:63:0c:08:70:6c:d4:58:
                    85:39:66:e8:8f
                ASN1 OID: prime256v1
                NIST CURVE: P-256
        X509v3 extensions:
            X509v3 Subject Key Identifier: 
                F8:ED:A5:A7:51:AF:AA:0C:23:58:45:F5:BC:FC:8C:7B:7A:6F:43:55
            X509v3 Certificate Policies: critical
                Policy: 2.23.146.1.2.1.4
            X509v3 CRL Distribution Points: 
                Full Name:
                  URI:http://gsma-crl.symauth.com/offlineca/gsma-rsp2-root-ci1.crl
            X509v3 Key Usage: critical
                Digital Signature
            X509v3 Subject Alternative Name: 
                Registered ID:1.3.6.1.4.1.45516.61
            X509v3 Authority Key Identifier: 
                81:37:0F:51:25:D0:B1:D4:08:D4:C3:B2:32:E6:D2:5E:79:5B:EB:FB
    Signature Algorithm: ecdsa-with-SHA256
    Signature Value:
        30:45:02:20:11:49:12:4c:aa:ab:c8:ca:53:f2:01:6a:c4:fd:
        8a:fb:1b:1c:b8:1b:03:a2:0d:a7:3b:81:1a:47:af:dd:ea:41:
        02:21:00:8f:3f:c0:64:1d:cf:b7:49:02:54:71:1a:9d:38:a4:
        b2:aa:5d:db:0e:a8:6d:cb:05:48:e0:0e:fb:7d:72:2a:4e
-----BEGIN CERTIFICATE-----
MIICbDCCAhKgAwIBAgIQQ99OBXkFGVArl040QWS/azAKBggqhkjOPQQDAjBEMRgw
FgYDVQQKEw9HU00gQXNzb2NpYXRpb24xKDAmBgNVBAMTH0dTTSBBc3NvY2lhdGlv
biAtIFJTUDIgUm9vdCBDSTEwHhcNMjIxMjE0MDAwMDAwWhcNMjUxMjEzMjM1OTU5
WjBYMQswCQYDVQQGEwJVUzEXMBUGA1UEChMOVkFMSUQgVVNBIElOQy4xFjAUBgNV
BAsTDVNXUyBWYWxpZCBVU0ExGDAWBgNVBAMTD1ZBTElEIFNNLURQcGx1czBZMBMG
ByqGSM49AgEGCCqGSM49AwEHA0IABMZPJfSprlNszFa76AGc6wTTuLPHu0SFBisb
6XYTm62O1x7QYB0cPsocRUH58iXqG6Y9aIBjDAhwbNRYhTlm6I+jgdEwgc4wHQYD
VR0OBBYEFPjtpadRr6oMI1hF9bz8jHt6b0NVMBcGA1UdIAEB/wQNMAswCQYHZ4ES
AQIBBDBNBgNVHR8ERjBEMEKgQKA+hjxodHRwOi8vZ3NtYS1jcmwuc3ltYXV0aC5j
b20vb2ZmbGluZWNhL2dzbWEtcnNwMi1yb290LWNpMS5jcmwwDgYDVR0PAQH/BAQD
AgeAMBQGA1UdEQQNMAuICSsGAQQBguNMPTAfBgNVHSMEGDAWgBSBNw9RJdCx1AjU
w7Iy5tJeeVvr+zAKBggqhkjOPQQDAgNIADBFAiARSRJMqqvIylPyAWrE/Yr7Gxy4
GwOiDac7gRpHr93qQQIhAI8/wGQdz7dJAlRxGp04pLKqXdsOqG3LBUjgDvt9cipO
-----END CERTIFICATE-----
