Certificate:
    Data:
        Version: 3 (0x2)
        Serial Number:
            76:41:99:fe:b3:db:2c:96:ad:9c:7c:fd:6b:1c:33:7b
        Signature Algorithm: ecdsa-with-SHA256
        Issuer: O=GSM Association, CN=GSM Association - RSP2 Root CI1
        Validity
            Not Before: Oct 28 00:00:00 2021 GMT
            Not After : Oct 27 23:59:59 2024 GMT
        Subject: C=NL, O=THALES SA, L=Eemshaven, OU=IT, CN=SMDP+ GCP EW1 MULTITENANT
        Subject Public Key Info:
            Public Key Algorithm: id-ecPublicKey
                Public-Key: (256 bit)
                pub:
                    04:1a:fa:92:ae:bb:74:f3:6e:29:ab:67:53:f5:36:
                    81:95:82:43:41:1b:86:2f:51:3a:f1:9d:06:7d:01:
                    02:60:e9:a6:b4:29:d4:1e:6e:30:97:f2:ce:08:f5:
                    c0:d3:71:88:d9:54:bc:ef:b0:91:f6:b6:88:6d:38:
                    f4:ca:72:ce:99
                ASN1 OID: prime256v1
                NIST CURVE: P-256
        X509v3 extensions:
            X509v3 Certificate Policies: critical
                Policy: 2.23.146.1.2.1.4
            X509v3 CRL Distribution Points: 
                Full Name:
                  URI:http://gsma-crl.symauth.com/offlineca/gsma-rsp2-root-ci1.crl
            X509v3 Key Usage: critical
                Digital Signature
            X509v3 Subject Alternative Name: 
                Registered ID:1.3.6.1.4.1.31746.1.220.100.101.2
            X509v3 Subject Key Identifier: 
                19:82:65:D2:53:E0:51:7D:5B:77:C0:DB:C2:20:A4:6A:FB:5B:F6:17
            X509v3 Authority Key Identifier: 
                81:37:0F:51:25:D0:B1:D4:08:D4:C3:B2:32:E6:D2:5E:79:5B:EB:FB
    Signature Algorithm: ecdsa-with-SHA256
    Signature Value:
        30:45:02:21:00:ee:e8:42:f8:50:19:01:6d:49:0a:b4:a3:a7:
        1c:13:19:3b:6d:bd:a2:69:84:3d:c4:7f:d0:13:f6:24:0f:93:
        79:02:20:62:72:e6:88:31:7b:0a:9f:37:db:c3:98:ac:9e:9c:
        fc:da:73:39:7c:5c:a2:62:eb:db:b1:61:67:0d:86:e5:ae
-----BEGIN CERTIFICATE-----
MIICfzCCAiWgAwIBAgIQdkGZ/rPbLJatnHz9axwzezAKBggqhkjOPQQDAjBEMRgw
FgYDVQQKEw9HU00gQXNzb2NpYXRpb24xKDAmBgNVBAMTH0dTTSBBc3NvY2lhdGlv
biAtIFJTUDIgUm9vdCBDSTEwHhcNMjExMDI4MDAwMDAwWhcNMjQxMDI3MjM1OTU5
WjBmMQswCQYDVQQGEwJOTDESMBAGA1UECgwJVEhBTEVTIFNBMRIwEAYDVQQHDAlF
ZW1zaGF2ZW4xCzAJBgNVBAsMAklUMSIwIAYDVQQDDBlTTURQKyBHQ1AgRVcxIE1V
TFRJVEVOQU5UMFkwEwYHKoZIzj0CAQYIKoZIzj0DAQcDQgAEGvqSrrt0824pq2dT
9TaBlYJDQRuGL1E68Z0GfQECYOmmtCnUHm4wl/LOCPXA03GI2VS877CR9raIbTj0
ynLOmaOB1jCB0zAXBgNVHSABAf8EDTALMAkGB2eBEgECAQQwTQYDVR0fBEYwRDBC
oECgPoY8aHR0cDovL2dzbWEtY3JsLnN5bWF1dGguY29tL29mZmxpbmVjYS9nc21h
LXJzcDItcm9vdC1jaTEuY3JsMA4GA1UdDwEB/wQEAwIHgDAZBgNVHREEEjAQiA4r
BgEEAYH4AgGBXGRlAjAdBgNVHQ4EFgQUGYJl0lPgUX1bd8DbwiCkavtb9hcwHwYD
VR0jBBgwFoAUgTcPUSXQsdQI1MOyMubSXnlb6/swCgYIKoZIzj0EAwIDSAAwRQIh
AO7oQvhQGQFtSQq0o6ccExk7bb2iaYQ9xH/QE/YkD5N5AiBicuaIMXsKnzfbw5is
npz82nM5fFyiYuvbsWFnDYblrg==
-----END CERTIFICATE-----
