Certificate:
    Data:
        Version: 3 (0x2)
        Serial Number: 512 (0x200)
        Signature Algorithm: ecdsa-with-SHA256
        Issuer: CN=Test CI, OU=TESTCERT, O=RSPTEST, C=IT
        Validity
            Not Before: Apr  1 08:31:30 2020 GMT
            Not After : Mar 30 08:31:30 2030 GMT
        Subject: O=ACME, CN=TEST SM-DP+2
        Subject Public Key Info:
            Public Key Algorithm: id-ecPublicKey
                Public-Key: (256 bit)
                pub:
                    04:2e:ee:07:c9:6d:00:5b:e5:19:5f:79:ad:1d:ad:
                    cd:1d:37:8c:a3:09:5e:44:f7:2e:ea:41:0f:08:c7:
                    56:12:2c:90:63:c9:65:b7:fc:85:29:c0:ca:4e:9b:
                    4f:65:96:9c:28:3c:65:63:64:57:87:71:18:f6:d1:
                    17:2d:6a:23:65
                ASN1 OID: brainpoolP256r1
        X509v3 extensions:
            X509v3 Authority Key Identifier: 
                C0:BC:70:BA:36:92:9D:43:B4:67:FF:57:57:05:30:E5:7A:B8:FC:D8
            X509v3 Subject Key Identifier: 
                D7:0E:FD:05:7B:AC:1F:7C:55:EA:5D:8C:26:BE:16:02:92:84:5B:AF
            X509v3 Subject Alternative Name: 
                Registered ID:2.999.12
            X509v3 Key Usage: critical
                Digital Signature
            X509v3 Certificate Policies: critical
                Policy: 2.23.146.1.2.1.4
            X509v3 CRL Distribution Points: 
                Full Name:
                  URI:http://ci.test.example.com/CRL-A.crl
                Full Name:
                  URI:http://ci.test.example.com/CRL-B.crl
    Signature Algorithm: ecdsa-with-SHA256
    Signature Value:
        30:45:02:20:7f:55:60:ba:8e:d6:e6:c4:70:97:53:1f:41:cd:
        85:c0:bb:4b:a8:fe:41:02:62:fa:d6:43:f3:79:9b:61:4c:41:
        02:21:00:83:c1:3d:a0:67:5e:5e:eb:43:c5:ab:2e:a8:53:09:
        c2:81:ec:2b:f5:69:f1:51:c3:22:6e:e1:06:cf:f9:cc:d3
-----BEGIN CERTIFICATE-----
MIICOzCCAeGgAwIBAgICAgAwCgYIKoZIzj0EAwIwRDEQMA4GA1UEAwwHVGVzdCBD
STERMA8GA1UECwwIVEVTVENFUlQxEDAOBgNVBAoMB1JTUFRFU1QxCzAJBgNVBAYT
AklUMB4XDTIwMDQwMTA4MzEzMFoXDTMwMDMzMDA4MzEzMFowJjENMAsGA1UECgwE
QUNNRTEVMBMGA1UEAwwMVEVTVCBTTS1EUCsyMFowFAYHKoZIzj0CAQYJKyQDAwII
AQEHA0IABC7uB8ltAFvlGV95rR2tzR03jKMJXkT3LupBDwjHVhIskGPJZbf8hSnA
yk6bT2WWnCg8ZWNkV4dxGPbRFy1qI2Wjgd8wgdwwHwYDVR0jBBgwFoAUwLxwujaS
nUO0Z/9XVwUw5Xq4/NgwHQYDVR0OBBYEFNcO/QV7rB98VepdjCa+FgKShFuvMA4G
A1UdEQQHMAWIA4g3DDAOBgNVHQ8BAf8EBAMCB4AwFwYDVR0gAQH/BA0wCzAJBgdn
gRIBAgEEMGEGA1UdHwRaMFgwKqAooCaGJGh0dHA6Ly9jaS50ZXN0LmV4YW1wbGUu
Y29tL0NSTC1BLmNybDAqoCigJoYkaHR0cDovL2NpLnRlc3QuZXhhbXBsZS5jb20v
Q1JMLUIuY3JsMAoGCCqGSM49BAMCA0gAMEUCIH9VYLqO1ubEcJdTH0HNhcC7S6j+
QQJi+tZD83mbYUxBAiEAg8E9oGdeXutDxasuqFMJwoHsK/Vp8VHDIm7hBs/5zNM=
-----END CERTIFICATE-----
