Certificate:
    Data:
        Version: 3 (0x2)
        Serial Number: 512 (0x200)
        Signature Algorithm: ecdsa-with-SHA256
        Issuer: CN=Test CI, OU=TESTCERT, O=RSPTEST, C=IT
        Validity
            Not Before: Apr  1 08:31:30 2020 GMT
            Not After : Mar 30 08:31:30 2030 GMT
        Subject: O=ACME, CN=TEST SM-DP+2
        Subject Public Key Info:
            Public Key Algorithm: id-ecPublicKey
                Public-Key: (256 bit)
                pub:
                    04:2b:2e:9b:45:d3:51:c0:9a:f4:0e:91:43:83:a1:
                    90:38:47:f2:60:7d:e6:0e:f7:ab:25:c4:0e:03:f8:
                    db:b6:50:8e:14:57:50:8c:2b:e0:01:73:47:ec:fa:
                    1b:f9:f7:75:e7:d0:7e:80:5e:52:e1:98:8b:7b:58:
                    5a:71:11:ae:33
                ASN1 OID: prime256v1
                NIST CURVE: P-256
        X509v3 extensions:
            X509v3 Authority Key Identifier: 
                F5:41:72:BD:F9:8A:95:D6:5C:BE:B8:8A:38:A1:C1:1D:80:0A:85:C3
            X509v3 Subject Key Identifier: 
                95:9E:F7:E6:50:C1:BE:21:6A:39:19:74:27:6D:26:B8:A9:35:61:71
            X509v3 Subject Alternative Name: 
                Registered ID:2.999.12
            X509v3 Key Usage: critical
                Digital Signature
            X509v3 Certificate Policies: critical
                Policy: 2.23.146.1.2.1.4
            X509v3 CRL Distribution Points: 
                Full Name:
                  URI:http://ci.test.example.com/CRL-A.crl
                Full Name:
                  URI:http://ci.test.example.com/CRL-B.crl
    Signature Algorithm: ecdsa-with-SHA256
    Signature Value:
        30:44:02:20:0e:96:47:81:a9:c8:45:53:aa:7a:11:1a:21:9d:
        3c:0f:2d:26:0b:d7:a6:4c:5d:68:d5:40:44:e0:90:1e:66:4e:
        02:20:26:59:54:f8:32:bf:b3:46:b8:e6:25:d2:80:3f:23:69:
        29:7a:be:31:a3:f9:23:ff:9f:09:7c:29:d9:d8:ff:dd
-----BEGIN CERTIFICATE-----
MIICOTCCAeCgAwIBAgICAgAwCgYIKoZIzj0EAwIwRDEQMA4GA1UEAwwHVGVzdCBD
STERMA8GA1UECwwIVEVTVENFUlQxEDAOBgNVBAoMB1JTUFRFU1QxCzAJBgNVBAYT
AklUMB4XDTIwMDQwMTA4MzEzMFoXDTMwMDMzMDA4MzEzMFowJjENMAsGA1UECgwE
QUNNRTEVMBMGA1UEAwwMVEVTVCBTTS1EUCsyMFkwEwYHKoZIzj0CAQYIKoZIzj0D
AQcDQgAEKy6bRdNRwJr0DpFDg6GQOEfyYH3mDverJcQOA/jbtlCOFFdQjCvgAXNH
7Pob+fd159B+gF5S4ZiLe1hacRGuM6OB3zCB3DAfBgNVHSMEGDAWgBT1QXK9+YqV
1ly+uIo4ocEdgAqFwzAdBgNVHQ4EFgQUlZ735lDBviFqORl0J20muKk1YXEwDgYD
VR0RBAcwBYgDiDcMMA4GA1UdDwEB/wQEAwIHgDAXBgNVHSABAf8EDTALMAkGB2eB
EgECAQQwYQYDVR0fBFowWDAqoCigJoYkaHR0cDovL2NpLnRlc3QuZXhhbXBsZS5j
b20vQ1JMLUEuY3JsMCqgKKAmhiRodHRwOi8vY2kudGVzdC5leGFtcGxlLmNvbS9D
UkwtQi5jcmwwCgYIKoZIzj0EAwIDRwAwRAIgDpZHganIRVOqehEaIZ08Dy0mC9em
TF1o1UBE4JAeZk4CICZZVPgyv7NGuOYl0oA/I2kper4xo/kj/58JfCnZ2P/d
-----END CERTIFICATE-----
