Certificate:
    Data:
        Version: 3 (0x2)
        Serial Number:
            7a:57:5b:0a:53:f1:e1:2a:2d:dc:31:1b:6c:d7:c5:ea
        Signature Algorithm: ecdsa-with-SHA256
        Issuer: O=GSM Association, CN=GSM Association - RSP2 Root CI1
        Validity
            Not Before: Oct 28 00:00:00 2021 GMT
            Not After : Oct 27 23:59:59 2024 GMT
        Subject: C=DE, O=THALES SA, L=Frankfurt, OU=IT, CN=SMDP+ GCP EW3 MULTITENANT
        Subject Public Key Info:
            Public Key Algorithm: id-ecPublicKey
                Public-Key: (256 bit)
                pub:
                    04:77:de:db:9c:ba:c2:be:86:d3:6a:6e:78:0d:71:
                    6c:24:34:43:0b:76:0c:8d:7d:7a:4a:17:3d:b0:e3:
                    0f:70:89:9c:c6:4c:b1:34:5e:2a:9f:77:a9:38:db:
                    1e:ca:20:b3:cf:d2:be:76:2e:21:a4:7c:7e:ee:da:
                    01:9b:2f:09:e1
                ASN1 OID: prime256v1
                NIST CURVE: P-256
        X509v3 extensions:
            X509v3 Certificate Policies: critical
                Policy: 2.23.146.1.2.1.4
            X509v3 CRL Distribution Points: 
                Full Name:
                  URI:http://gsma-crl.symauth.com/offlineca/gsma-rsp2-root-ci1.crl
            X509v3 Key Usage: critical
                Digital Signature
            X509v3 Subject Alternative Name: 
                Registered ID:1.3.6.1.4.1.31746.1.220.100.101.2
            X509v3 Subject Key Identifier: 
                1E:D1:7C:82:7E:A6:FD:DB:BB:40:4B:3C:10:7B:EB:0E:E2:AE:ED:53
            X509v3 Authority Key Identifier: 
                81:37:0F:51:25:D0:B1:D4:08:D4:C3:B2:32:E6:D2:5E:79:5B:EB:FB
    Signature Algorithm: ecdsa-with-SHA256
    Signature Value:
        30:46:02:21:00:d3:34:eb:fc:29:06:b6:ec:eb:f9:7a:20:c7:
        56:81:41:63:89:97:be:4b:f1:cd:38:3c:26:4d:d4:8f:65:5d:
        89:02:21:00:cf:7c:92:ec:61:2f:8a:05:4e:e3:47:58:cc:d6:
        a3:04:9e:88:99:41:d4:36:8f:1b:3e:8d:37:37:9d:53:9e:2b
-----BEGIN CERTIFICATE-----
MIICgDCCAiWgAwIBAgIQeldbClPx4Sot3DEbbNfF6jAKBggqhkjOPQQDAjBEMRgw
FgYDVQQKEw9HU00gQXNzb2NpYXRpb24xKDAmBgNVBAMTH0dTTSBBc3NvY2lhdGlv
biAtIFJTUDIgUm9vdCBDSTEwHhcNMjExMDI4MDAwMDAwWhcNMjQxMDI3MjM1OTU5
WjBmMQswCQYDVQQGEwJERTESMBAGA1UECgwJVEhBTEVTIFNBMRIwEAYDVQQHDAlG
cmFua2Z1cnQxCzAJBgNVBAsMAklUMSIwIAYDVQQDDBlTTURQKyBHQ1AgRVczIE1V
TFRJVEVOQU5UMFkwEwYHKoZIzj0CAQYIKoZIzj0DAQcDQgAEd97bnLrCvobTam54
DXFsJDRDC3YMjX16Shc9sOMPcImcxkyxNF4qn3epONseyiCzz9K+di4hpHx+7toB
my8J4aOB1jCB0zAXBgNVHSABAf8EDTALMAkGB2eBEgECAQQwTQYDVR0fBEYwRDBC
oECgPoY8aHR0cDovL2dzbWEtY3JsLnN5bWF1dGguY29tL29mZmxpbmVjYS9nc21h
LXJzcDItcm9vdC1jaTEuY3JsMA4GA1UdDwEB/wQEAwIHgDAZBgNVHREEEjAQiA4r
BgEEAYH4AgGBXGRlAjAdBgNVHQ4EFgQUHtF8gn6m/du7QEs8EHvrDuKu7VMwHwYD
VR0jBBgwFoAUgTcPUSXQsdQI1MOyMubSXnlb6/swCgYIKoZIzj0EAwIDSQAwRgIh
ANM06/wpBrbs6/l6IMdWgUFjiZe+S/HNODwmTdSPZV2JAiEAz3yS7GEvigVO40dY
zNajBJ6ImUHUNo8bPo03N51Tnis=
-----END CERTIFICATE-----
