Certificate:
    Data:
        Version: 3 (0x2)
        Serial Number:
            02:fa:9f:d7:05:89:11:2e:6f:59:64:06:df:1f:0f:a8
        Signature Algorithm: ecdsa-with-SHA256
        Issuer: O=GSM Association, CN=GSM Association - RSP2 Root CI1
        Validity
            Not Before: May 31 00:00:00 2023 GMT
            Not After : May 30 23:59:59 2026 GMT
        Subject: C=ES, O=Valid Soluciones Tecnologicas S.A.U, OU=SWS Valid ES, CN=VALID SM-DPplus
        Subject Public Key Info:
            Public Key Algorithm: id-ecPublicKey
                Public-Key: (256 bit)
                pub:
                    04:4c:5e:b4:22:85:98:d2:1c:c5:d2:a6:18:7b:3b:
                    d9:68:c8:cc:8d:97:21:ee:5f:3d:5c:48:fb:b6:1e:
                    99:e4:ae:60:f5:6d:e3:9f:26:3b:ab:83:dc:36:25:
                    14:43:37:21:e7:91:91:a8:77:a5:17:47:cb:ea:39:
                    e3:b7:5e:0f:cb
                ASN1 OID: prime256v1
                NIST CURVE: P-256
        X509v3 extensions:
            X509v3 Subject Key Identifier: 
                D3:55:1A:07:84:23:01:FD:71:00:38:2B:38:D9:94:B3:3E:98:06:F0
            X509v3 Certificate Policies: critical
                Policy: 2.23.146.1.2.1.4
            X509v3 CRL Distribution Points: 
                Full Name:
                  URI:http://gsma-crl.symauth.com/offlineca/gsma-rsp2-root-ci1.crl
            X509v3 Key Usage: critical
                Digital Signature
            X509v3 Subject Alternative Name: 
                Registered ID:1.3.6.1.4.1.45516.8
            X509v3 Authority Key Identifier: 
                81:37:0F:51:25:D0:B1:D4:08:D4:C3:B2:32:E6:D2:5E:79:5B:EB:FB
    Signature Algorithm: ecdsa-with-SHA256
    Signature Value:
        30:45:02:21:00:d3:41:dd:76:ed:cd:3b:70:ba:7c:d1:11:b8:
        90:51:5a:75:f7:c9:94:b1:50:58:c0:71:a6:05:57:68:62:88:
        a6:02:20:33:52:3e:48:c8:3a:93:1a:42:50:62:5c:aa:1d:3d:
        ee:29:22:f4:f1:5f:6e:fb:a7:e6:3c:99:81:fa:bf:3d:b5
-----BEGIN CERTIFICATE-----
MIICgDCCAiagAwIBAgIQAvqf1wWJES5vWWQG3x8PqDAKBggqhkjOPQQDAjBEMRgw
FgYDVQQKEw9HU00gQXNzb2NpYXRpb24xKDAmBgNVBAMTH0dTTSBBc3NvY2lhdGlv
biAtIFJTUDIgUm9vdCBDSTEwHhcNMjMwNTMxMDAwMDAwWhcNMjYwNTMwMjM1OTU5
WjBsMQswCQYDVQQGEwJFUzEsMCoGA1UEChMjVmFsaWQgU29sdWNpb25lcyBUZWNu
b2xvZ2ljYXMgUy5BLlUxFTATBgNVBAsTDFNXUyBWYWxpZCBFUzEYMBYGA1UEAxMP
VkFMSUQgU00tRFBwbHVzMFkwEwYHKoZIzj0CAQYIKoZIzj0DAQcDQgAETF60IoWY
0hzF0qYYezvZaMjMjZch7l89XEj7th6Z5K5g9W3jnyY7q4PcNiUUQzch55GRqHel
F0fL6jnjt14Py6OB0TCBzjAdBgNVHQ4EFgQU01UaB4QjAf1xADgrONmUsz6YBvAw
FwYDVR0gAQH/BA0wCzAJBgdngRIBAgEEME0GA1UdHwRGMEQwQqBAoD6GPGh0dHA6
Ly9nc21hLWNybC5zeW1hdXRoLmNvbS9vZmZsaW5lY2EvZ3NtYS1yc3AyLXJvb3Qt
Y2kxLmNybDAOBgNVHQ8BAf8EBAMCB4AwFAYDVR0RBA0wC4gJKwYBBAGC40wIMB8G
A1UdIwQYMBaAFIE3D1El0LHUCNTDsjLm0l55W+v7MAoGCCqGSM49BAMCA0gAMEUC
IQDTQd127c07cLp80RG4kFFadffJlLFQWMBxpgVXaGKIpgIgM1I+SMg6kxpCUGJc
qh097iki9PFfbvun5jyZgfq/PbU=
-----END CERTIFICATE-----
