Certificate:
    Data:
        Version: 3 (0x2)
        Serial Number:
            1c:8d:e2:5c:a1:91:7c:dd:04:9c:64:83:21:87:29:33
        Signature Algorithm: ecdsa-with-SHA256
        Issuer: O=GSM Association, CN=GSM Association - RSP2 Root CI1
        Validity
            Not Before: Feb 22 00:00:00 2023 GMT
            Not After : Feb 21 23:59:59 2026 GMT
        Subject: C=SA, L=Riyadh, O=Saudi Telecom Company, OU=IT Security, CN=SMDP Plus STC GSMA Prod
        Subject Public Key Info:
            Public Key Algorithm: id-ecPublicKey
                Public-Key: (256 bit)
                pub:
                    04:c1:0b:32:e7:44:89:30:80:a3:44:cc:24:03:21:
                    1e:ee:87:24:fa:52:38:1f:c2:44:36:22:6d:3f:d9:
                    8e:56:b5:e7:8a:4a:09:8d:e9:26:b7:ad:87:cb:74:
                    82:e0:d3:6f:45:b5:ca:59:8a:0c:04:81:0d:c7:b6:
                    c2:5b:4b:fd:df
                ASN1 OID: prime256v1
                NIST CURVE: P-256
        X509v3 extensions:
            X509v3 Subject Key Identifier: 
                28:6D:10:75:6B:68:F0:E1:4A:69:F6:53:C0:22:15:3D:3C:88:AA:5B
            X509v3 Certificate Policies: critical
                Policy: 2.23.146.1.2.1.4
            X509v3 CRL Distribution Points: 
                Full Name:
                  URI:http://gsma-crl.symauth.com/offlineca/gsma-rsp2-root-ci1.crl
            X509v3 Key Usage: critical
                Digital Signature
            X509v3 Subject Alternative Name: 
                Registered ID:1.3.6.1.4.1.14869.1.200.100.101.1
            X509v3 Authority Key Identifier: 
                81:37:0F:51:25:D0:B1:D4:08:D4:C3:B2:32:E6:D2:5E:79:5B:EB:FB
    Signature Algorithm: ecdsa-with-SHA256
    Signature Value:
        30:45:02:21:00:df:fa:37:72:90:a6:12:3a:e2:b7:af:77:a0:
        94:99:da:30:5c:7c:2f:30:60:27:ba:d5:50:33:e7:32:b4:1e:
        26:02:20:32:2f:11:7f:37:ce:65:6f:f0:2e:e6:98:5a:6f:5c:
        ce:f0:fc:14:c4:00:53:de:bc:11:fe:14:5b:28:2b:f1:ac
-----BEGIN CERTIFICATE-----
MIICjjCCAjSgAwIBAgIQHI3iXKGRfN0EnGSDIYcpMzAKBggqhkjOPQQDAjBEMRgw
FgYDVQQKEw9HU00gQXNzb2NpYXRpb24xKDAmBgNVBAMTH0dTTSBBc3NvY2lhdGlv
biAtIFJTUDIgUm9vdCBDSTEwHhcNMjMwMjIyMDAwMDAwWhcNMjYwMjIxMjM1OTU5
WjB2MQswCQYDVQQGEwJTQTEPMA0GA1UEBwwGUml5YWRoMR4wHAYDVQQKDBVTYXVk
aSBUZWxlY29tIENvbXBhbnkxFDASBgNVBAsMC0lUIFNlY3VyaXR5MSAwHgYDVQQD
DBdTTURQIFBsdXMgU1RDIEdTTUEgUHJvZDBZMBMGByqGSM49AgEGCCqGSM49AwEH
A0IABMELMudEiTCAo0TMJAMhHu6HJPpSOB/CRDYibT/Zjla154pKCY3pJreth8t0
guDTb0W1ylmKDASBDce2wltL/d+jgdUwgdIwHQYDVR0OBBYEFChtEHVraPDhSmn2
U8AiFT08iKpbMBcGA1UdIAEB/wQNMAswCQYHZ4ESAQIBBDBNBgNVHR8ERjBEMEKg
QKA+hjxodHRwOi8vZ3NtYS1jcmwuc3ltYXV0aC5jb20vb2ZmbGluZWNhL2dzbWEt
cnNwMi1yb290LWNpMS5jcmwwDgYDVR0PAQH/BAQDAgeAMBgGA1UdEQQRMA+IDSsG
AQQB9BUBgUhkZQEwHwYDVR0jBBgwFoAUgTcPUSXQsdQI1MOyMubSXnlb6/swCgYI
KoZIzj0EAwIDSAAwRQIhAN/6N3KQphI64revd6CUmdowXHwvMGAnutVQM+cytB4m
AiAyLxF/N85lb/Au5phab1zO8PwUxABT3rwR/hRbKCvxrA==
-----END CERTIFICATE-----
