Certificate:
    Data:
        Version: 3 (0x2)
        Serial Number:
            02:43:77:00:92:3e:0d:e8:c2:3f:4c:27:5e:6b:86:92
        Signature Algorithm: ecdsa-with-SHA256
        Issuer: O=GSM Association, CN=GSM Association - RSP2 Root CI1
        Validity
            Not Before: Mar 31 00:00:00 2022 GMT
            Not After : Mar 30 23:59:59 2025 GMT
        Subject: C=GB, ST=County Antrim, L=Belfast, O=Kigen (UK) Ltd., CN=smdp-plus-1.eu.cd.rsp.kigen.com
        Subject Public Key Info:
            Public Key Algorithm: id-ecPublicKey
                Public-Key: (256 bit)
                pub:
                    04:b9:9c:f2:d0:ca:e8:b6:4f:69:ce:75:0e:d2:f3:
                    6f:03:c9:e6:23:be:75:dd:38:22:09:18:68:fb:3b:
                    8f:00:b7:40:7a:2d:bc:5a:ac:1b:af:b0:da:89:b9:
                    a1:5a:1a:0c:76:d7:fb:c7:83:aa:e3:7d:70:2f:b9:
                    1f:57:81:41:95
                ASN1 OID: prime256v1
                NIST CURVE: P-256
        X509v3 extensions:
            X509v3 Certificate Policies: critical
                Policy: 2.23.146.1.2.1.4
            X509v3 CRL Distribution Points: 
                Full Name:
                  URI:http://gsma-crl.symauth.com/offlineca/gsma-rsp2-root-ci1.crl
            X509v3 Key Usage: critical
                Digital Signature
            X509v3 Subject Alternative Name: 
                Registered ID:1.3.6.1.4.1.56723.1.1.2.1.1
            X509v3 Subject Key Identifier: 
                9F:C6:B9:F2:2E:31:B1:7F:BD:ED:93:D5:A1:FE:9D:41:60:69:64:E9
            X509v3 Authority Key Identifier: 
                81:37:0F:51:25:D0:B1:D4:08:D4:C3:B2:32:E6:D2:5E:79:5B:EB:FB
    Signature Algorithm: ecdsa-with-SHA256
    Signature Value:
        30:45:02:21:00:af:fe:05:29:c4:47:53:95:db:b9:0f:fa:e4:
        10:2e:b1:14:6d:b2:44:85:3d:e9:b8:54:96:55:ee:5d:fa:c0:
        c9:02:20:3e:ff:38:67:6b:a9:b1:4a:de:12:24:eb:e5:f3:34:
        6f:9f:67:52:39:c0:6c:90:bf:68:5e:a0:d7:25:e0:8f:28
-----BEGIN CERTIFICATE-----
MIICkzCCAjmgAwIBAgIQAkN3AJI+DejCP0wnXmuGkjAKBggqhkjOPQQDAjBEMRgw
FgYDVQQKEw9HU00gQXNzb2NpYXRpb24xKDAmBgNVBAMTH0dTTSBBc3NvY2lhdGlv
biAtIFJTUDIgUm9vdCBDSTEwHhcNMjIwMzMxMDAwMDAwWhcNMjUwMzMwMjM1OTU5
WjB7MQswCQYDVQQGEwJHQjEWMBQGA1UECBMNQ291bnR5IEFudHJpbTEQMA4GA1UE
BxMHQmVsZmFzdDEYMBYGA1UEChMPS2lnZW4gKFVLKSBMdGQuMSgwJgYDVQQDEx9z
bWRwLXBsdXMtMS5ldS5jZC5yc3Aua2lnZW4uY29tMFkwEwYHKoZIzj0CAQYIKoZI
zj0DAQcDQgAEuZzy0Mrotk9pznUO0vNvA8nmI7513TgiCRho+zuPALdAei28Wqwb
r7DaibmhWhoMdtf7x4Oq431wL7kfV4FBlaOB1TCB0jAXBgNVHSABAf8EDTALMAkG
B2eBEgECAQQwTQYDVR0fBEYwRDBCoECgPoY8aHR0cDovL2dzbWEtY3JsLnN5bWF1
dGguY29tL29mZmxpbmVjYS9nc21hLXJzcDItcm9vdC1jaTEuY3JsMA4GA1UdDwEB
/wQEAwIHgDAYBgNVHREEETAPiA0rBgEEAYO7EwEBAgEBMB0GA1UdDgQWBBSfxrny
LjGxf73tk9Wh/p1BYGlk6TAfBgNVHSMEGDAWgBSBNw9RJdCx1AjUw7Iy5tJeeVvr
+zAKBggqhkjOPQQDAgNIADBFAiEAr/4FKcRHU5XbuQ/65BAusRRtskSFPem4VJZV
7l36wMkCID7/OGdrqbFK3hIk6+XzNG+fZ1I5wGyQv2heoNcl4I8o
-----END CERTIFICATE-----
