Certificate:
    Data:
        Version: 3 (0x2)
        Serial Number: 100 (0x64)
        Signature Algorithm: ecdsa-with-SHA256
        Issuer: CN=GSMA Test CI, OU=TESTCERT, O=RSPTEST, C=IT
        Validity
            Not Before: Apr 26 15:20:12 2017 GMT
            Not After : Apr 25 15:20:12 2020 GMT
        Subject: O=ACME, CN=TEST SM-DP+
        Subject Public Key Info:
            Public Key Algorithm: id-ecPublicKey
                Public-Key: (256 bit)
                pub:
                    04:25:5d:7d:af:00:ef:84:1d:76:fa:7a:63:d6:3e:
                    b3:fe:6c:9f:70:49:2d:38:19:23:f8:f8:bd:7b:24:
                    f3:c5:ad:16:8e:be:3b:09:dd:80:f2:9e:7f:fd:24:
                    a4:d1:be:74:7f:83:23:e4:72:92:83:96:dd:e9:e0:
                    15:1c:ea:ba:18
                ASN1 OID: brainpoolP256r1
        X509v3 extensions:
            X509v3 Authority Key Identifier: 
                C0:BC:70:BA:36:92:9D:43:B4:67:FF:57:57:05:30:E5:7A:B8:FC:D8
            X509v3 Subject Key Identifier: 
                79:A4:BD:4D:78:FF:47:34:BC:60:45:CF:91:96:24:4A:1F:B8:4B:EB
            X509v3 Subject Alternative Name: 
                Registered ID:2.999.10
            X509v3 Key Usage: critical
                Digital Signature
            X509v3 Certificate Policies: critical
                Policy: 2.23.146.1.2.1.4
            X509v3 CRL Distribution Points: 
                Full Name:
                  URI:http://ci.test.gsma.com/CRL-A.crl
                Full Name:
                  URI:http://ci.test.gsma.com/CRL-B.crl
    Signature Algorithm: ecdsa-with-SHA256
    Signature Value:
        30:45:02:20:30:45:fe:e3:ed:cc:6c:84:36:3d:d7:b8:6e:98:
        4b:dd:1c:94:78:cd:0f:2c:da:8e:4c:b9:63:13:f7:85:b2:db:
        02:21:00:81:29:01:29:4a:5f:c6:82:cf:fa:57:0f:8a:42:d5:
        59:b0:7c:ef:83:05:f7:d2:36:41:64:df:4d:f8:8c:a7:fa
-----BEGIN CERTIFICATE-----
MIICODCCAd6gAwIBAgIBZDAKBggqhkjOPQQDAjBJMRUwEwYDVQQDDAxHU01BIFRl
c3QgQ0kxETAPBgNVBAsMCFRFU1RDRVJUMRAwDgYDVQQKDAdSU1BURVNUMQswCQYD
VQQGEwJJVDAeFw0xNzA0MjYxNTIwMTJaFw0yMDA0MjUxNTIwMTJaMCUxDTALBgNV
BAoMBEFDTUUxFDASBgNVBAMMC1RFU1QgU00tRFArMFowFAYHKoZIzj0CAQYJKyQD
AwIIAQEHA0IABCVdfa8A74Qddvp6Y9Y+s/5sn3BJLTgZI/j4vXsk88WtFo6+Ownd
gPKef/0kpNG+dH+DI+RykoOW3engFRzquhijgdkwgdYwHwYDVR0jBBgwFoAUwLxw
ujaSnUO0Z/9XVwUw5Xq4/NgwHQYDVR0OBBYEFHmkvU14/0c0vGBFz5GWJEofuEvr
MA4GA1UdEQQHMAWIA4g3CjAOBgNVHQ8BAf8EBAMCB4AwFwYDVR0gAQH/BA0wCzAJ
BgdngRIBAgEEMFsGA1UdHwRUMFIwJ6AloCOGIWh0dHA6Ly9jaS50ZXN0LmdzbWEu
Y29tL0NSTC1BLmNybDAnoCWgI4YhaHR0cDovL2NpLnRlc3QuZ3NtYS5jb20vQ1JM
LUIuY3JsMAoGCCqGSM49BAMCA0gAMEUCIDBF/uPtzGyENj3XuG6YS90clHjNDyza
jky5YxP3hbLbAiEAgSkBKUpfxoLP+lcPikLVWbB874MF99I2QWTfTfiMp/o=
-----END CERTIFICATE-----
