Certificate:
    Data:
        Version: 3 (0x2)
        Serial Number:
            19:49:1a:c5:05:6b:80:fb:27:bd:33:db:c5:97:b3:7d
        Signature Algorithm: ecdsa-with-SHA256
        Issuer: O=GSM Association, CN=GSM Association - RSP2 Root CI1
        Validity
            Not Before: Apr  3 00:00:00 2024 GMT
            Not After : Apr  2 23:59:59 2027 GMT
        Subject: C=US, O=Gemalto Inc, CN=MTNT PRODUCTION DP GSMA
        Subject Public Key Info:
            Public Key Algorithm: id-ecPublicKey
                Public-Key: (256 bit)
                pub:
                    04:fa:19:51:4b:55:94:54:53:d4:45:ed:e5:4f:71:
                    be:78:d6:57:ba:70:9d:56:4d:cd:5e:56:ca:36:09:
                    61:f6:71:57:5c:01:77:17:35:33:fd:81:d3:73:f2:
                    94:37:62:96:f6:71:0a:01:1e:63:7d:ec:ca:23:c6:
                    a5:8b:27:7e:4e
                ASN1 OID: prime256v1
                NIST CURVE: P-256
        X509v3 extensions:
            X509v3 Subject Alternative Name: 
                Registered ID:1.3.6.1.4.1.31746.1.220.100.101.2
            X509v3 Subject Key Identifier: 
                91:4F:B8:50:EF:17:62:07:C2:1C:44:0D:8C:4D:50:8B:8E:8A:40:F9
            X509v3 Certificate Policies: critical
                Policy: 2.23.146.1.2.1.4
            X509v3 CRL Distribution Points: 
                Full Name:
                  URI:http://gsma-crl.symauth.com/offlineca/gsma-rsp2-root-ci1.crl
            X509v3 Key Usage: critical
                Digital Signature
            X509v3 Authority Key Identifier: 
                81:37:0F:51:25:D0:B1:D4:08:D4:C3:B2:32:E6:D2:5E:79:5B:EB:FB
    Signature Algorithm: ecdsa-with-SHA256
    Signature Value:
        30:44:02:21:00:ed:09:df:be:eb:45:ed:9e:11:1a:4e:26:9f:
        0f:f6:2e:a0:24:9f:00:8d:2e:3e:e1:df:fa:b8:d8:36:94:5a:
        36:02:1f:7b:40:db:dc:a5:62:c7:29:f0:7c:01:66:96:2b:28:
        c7:bd:73:51:b3:e8:60:3e:b4:46:34:7d:a2:6f:ed:21
-----BEGIN CERTIFICATE-----
MIICXTCCAgSgAwIBAgIQGUkaxQVrgPsnvTPbxZezfTAKBggqhkjOPQQDAjBEMRgw
FgYDVQQKEw9HU00gQXNzb2NpYXRpb24xKDAmBgNVBAMTH0dTTSBBc3NvY2lhdGlv
biAtIFJTUDIgUm9vdCBDSTEwHhcNMjQwNDAzMDAwMDAwWhcNMjcwNDAyMjM1OTU5
WjBFMQswCQYDVQQGEwJVUzEUMBIGA1UECgwLR2VtYWx0byBJbmMxIDAeBgNVBAMM
F01UTlQgUFJPRFVDVElPTiBEUCBHU01BMFkwEwYHKoZIzj0CAQYIKoZIzj0DAQcD
QgAE+hlRS1WUVFPURe3lT3G+eNZXunCdVk3NXlbKNglh9nFXXAF3FzUz/YHTc/KU
N2KW9nEKAR5jfezKI8aliyd+TqOB1jCB0zAZBgNVHREEEjAQiA4rBgEEAYH4AgGB
XGRlAjAdBgNVHQ4EFgQUkU+4UO8XYgfCHEQNjE1Qi46KQPkwFwYDVR0gAQH/BA0w
CzAJBgdngRIBAgEEME0GA1UdHwRGMEQwQqBAoD6GPGh0dHA6Ly9nc21hLWNybC5z
eW1hdXRoLmNvbS9vZmZsaW5lY2EvZ3NtYS1yc3AyLXJvb3QtY2kxLmNybDAOBgNV
HQ8BAf8EBAMCB4AwHwYDVR0jBBgwFoAUgTcPUSXQsdQI1MOyMubSXnlb6/swCgYI
KoZIzj0EAwIDRwAwRAIhAO0J377rRe2eERpOJp8P9i6gJJ8AjS4+4d/6uNg2lFo2
Ah97QNvcpWLHKfB8AWaWKyjHvXNRs+hgPrRGNH2ib+0h
-----END CERTIFICATE-----
