Certificate:
    Data:
        Version: 3 (0x2)
        Serial Number:
            60:b6:01:88:30:5e:18:5f:d1:99:51:05:e7:a8:56:a1
        Signature Algorithm: ecdsa-with-SHA256
        Issuer: C=US, O=Entrust, Inc., OU=See www.entrust.net/legal-terms, OU=(c) 2016 Entrust, Inc. - for authorized use only, CN=Entrust eSIM Certification Authority
        Validity
            Not Before: Aug 23 12:31:13 2021 GMT
            Not After : Aug 23 12:31:13 2024 GMT
        Subject: C=KW, L=Salmiya, O=Kuwait Telecommunications Company (K.S.C), CN=Eastcompeace RSP
        Subject Public Key Info:
            Public Key Algorithm: id-ecPublicKey
                Public-Key: (256 bit)
                pub:
                    04:47:cc:b5:4c:64:2e:d4:9e:4b:9d:e6:b5:15:5a:
                    56:6e:f0:0e:aa:bb:37:b3:dd:b4:99:c3:88:37:5d:
                    8a:1c:38:00:e3:ca:76:30:74:95:a7:89:3c:7a:d9:
                    ae:7b:36:0b:95:22:ec:4f:e9:47:d0:6d:52:57:73:
                    92:e3:cf:25:98
                ASN1 OID: prime256v1
                NIST CURVE: P-256
        X509v3 extensions:
            X509v3 Basic Constraints: critical
                CA:FALSE
            X509v3 Subject Key Identifier: 
                90:2A:29:34:55:FD:6C:66:78:46:C9:61:B1:D0:CE:EA:FE:78:02:B0
            X509v3 Authority Key Identifier: 
                16:70:4B:7F:35:1E:36:07:F1:8C:4B:70:00:5C:3A:00:3D:FD:41:4A
            X509v3 CRL Distribution Points: 
                Full Name:
                  URI:http://crl.entrust.net/entesimca.crl
            X509v3 Subject Alternative Name: 
                Registered ID:1.3.6.1.4.1.50461.1
            X509v3 Key Usage: critical
                Digital Signature
            X509v3 Certificate Policies: critical
                Policy: 2.23.146.1.2.1.4
    Signature Algorithm: ecdsa-with-SHA256
    Signature Value:
        30:45:02:20:3d:2a:a9:50:a2:12:a5:ec:24:c5:bf:63:6c:2e:
        3a:44:eb:1d:e8:8a:6b:03:42:6e:13:5d:82:99:bc:16:b9:78:
        02:21:00:dd:fd:48:ff:02:af:91:93:a9:f3:87:16:bb:53:e2:
        43:09:a6:1f:0a:a4:77:1e:73:aa:7d:c7:e0:e9:db:50:9c
-----BEGIN CERTIFICATE-----
MIIC7jCCApSgAwIBAgIQYLYBiDBeGF/RmVEF56hWoTAKBggqhkjOPQQDAjCBuTEL
MAkGA1UEBhMCVVMxFjAUBgNVBAoTDUVudHJ1c3QsIEluYy4xKDAmBgNVBAsTH1Nl
ZSB3d3cuZW50cnVzdC5uZXQvbGVnYWwtdGVybXMxOTA3BgNVBAsTMChjKSAyMDE2
IEVudHJ1c3QsIEluYy4gLSBmb3IgYXV0aG9yaXplZCB1c2Ugb25seTEtMCsGA1UE
AxMkRW50cnVzdCBlU0lNIENlcnRpZmljYXRpb24gQXV0aG9yaXR5MB4XDTIxMDgy
MzEyMzExM1oXDTI0MDgyMzEyMzExM1owbjELMAkGA1UEBhMCS1cxEDAOBgNVBAcT
B1NhbG1peWExMjAwBgNVBAoTKUt1d2FpdCBUZWxlY29tbXVuaWNhdGlvbnMgQ29t
cGFueSAoSy5TLkMpMRkwFwYDVQQDExBFYXN0Y29tcGVhY2UgUlNQMFkwEwYHKoZI
zj0CAQYIKoZIzj0DAQcDQgAER8y1TGQu1J5Lnea1FVpWbvAOqrs3s920mcOIN12K
HDgA48p2MHSVp4k8etmuezYLlSLsT+lH0G1SV3OS488lmKOBxzCBxDAMBgNVHRMB
Af8EAjAAMB0GA1UdDgQWBBSQKik0Vf1sZnhGyWGx0M7q/ngCsDAfBgNVHSMEGDAW
gBQWcEt/NR42B/GMS3AAXDoAPf1BSjA1BgNVHR8ELjAsMCqgKKAmhiRodHRwOi8v
Y3JsLmVudHJ1c3QubmV0L2VudGVzaW1jYS5jcmwwFAYDVR0RBA0wC4gJKwYBBAGD
ih0BMA4GA1UdDwEB/wQEAwIHgDAXBgNVHSABAf8EDTALMAkGB2eBEgECAQQwCgYI
KoZIzj0EAwIDSAAwRQIgPSqpUKISpewkxb9jbC46ROsd6IprA0JuE12CmbwWuXgC
IQDd/Uj/Aq+Rk6nzhxa7U+JDCaYfCqR3HnOqfcfg6dtQnA==
-----END CERTIFICATE-----
