Certificate:
    Data:
        Version: 3 (0x2)
        Serial Number:
            7f:b0:4a:93:52:9c:de:70:0e:f5:0c:89:6d:bb:db:0a
        Signature Algorithm: ecdsa-with-SHA256
        Issuer: O=GSM Association, CN=GSM Association - RSP2 Root CI1
        Validity
            Not Before: Aug 31 00:00:00 2022 GMT
            Not After : Aug 30 23:59:59 2025 GMT
        Subject: C=IN, O=Tata Communications, OU=Oasis Smart Sim, CN=eos3-in-gsma-dpauth
        Subject Public Key Info:
            Public Key Algorithm: id-ecPublicKey
                Public-Key: (256 bit)
                pub:
                    04:08:36:78:0a:1e:94:0c:fa:17:c6:c6:41:b7:c5:
                    9e:b1:b7:7e:ec:5c:3b:9e:e7:f1:64:9e:18:24:77:
                    99:b3:00:d1:53:71:79:10:a1:69:19:a0:53:6a:ca:
                    ea:da:d0:25:1c:40:b7:a6:bc:1c:2b:69:24:8d:f5:
                    85:41:70:5f:80
                ASN1 OID: prime256v1
                NIST CURVE: P-256
        X509v3 extensions:
            X509v3 Subject Key Identifier: 
                70:60:5C:B2:6B:F6:C7:FE:53:4B:50:1D:7F:41:E0:72:1A:C3:6C:26
            X509v3 Certificate Policies: critical
                Policy: 2.23.146.1.2.1.4
            X509v3 CRL Distribution Points: 
                Full Name:
                  URI:http://gsma-crl.symauth.com/offlineca/gsma-rsp2-root-ci1.crl
            X509v3 Key Usage: critical
                Digital Signature
            X509v3 Subject Alternative Name: 
                Registered ID:1.3.6.1.4.1.53460.7.5.1.2
            X509v3 Authority Key Identifier: 
                81:37:0F:51:25:D0:B1:D4:08:D4:C3:B2:32:E6:D2:5E:79:5B:EB:FB
    Signature Algorithm: ecdsa-with-SHA256
    Signature Value:
        30:46:02:21:00:81:f1:92:9c:83:fe:86:8a:1b:d6:58:34:69:
        f1:a7:aa:d6:2f:5a:5e:8a:67:1f:88:f2:96:95:d2:08:12:df:
        da:02:21:00:9b:cc:48:7f:59:2f:0f:81:36:72:c4:f2:37:6c:
        ed:34:3e:d0:0b:c3:5e:50:fe:c3:51:6b:6d:c4:5e:b3:75:7d
-----BEGIN CERTIFICATE-----
MIICezCCAiCgAwIBAgIQf7BKk1Kc3nAO9QyJbbvbCjAKBggqhkjOPQQDAjBEMRgw
FgYDVQQKEw9HU00gQXNzb2NpYXRpb24xKDAmBgNVBAMTH0dTTSBBc3NvY2lhdGlv
biAtIFJTUDIgUm9vdCBDSTEwHhcNMjIwODMxMDAwMDAwWhcNMjUwODMwMjM1OTU5
WjBjMQswCQYDVQQGEwJJTjEcMBoGA1UECgwTVGF0YSBDb21tdW5pY2F0aW9uczEY
MBYGA1UECwwPT2FzaXMgU21hcnQgU2ltMRwwGgYDVQQDDBNlb3MzLWluLWdzbWEt
ZHBhdXRoMFkwEwYHKoZIzj0CAQYIKoZIzj0DAQcDQgAECDZ4Ch6UDPoXxsZBt8We
sbd+7Fw7nufxZJ4YJHeZswDRU3F5EKFpGaBTasrq2tAlHEC3prwcK2kkjfWFQXBf
gKOB1DCB0TAdBgNVHQ4EFgQUcGBcsmv2x/5TS1Adf0HgchrDbCYwFwYDVR0gAQH/
BA0wCzAJBgdngRIBAgEEME0GA1UdHwRGMEQwQqBAoD6GPGh0dHA6Ly9nc21hLWNy
bC5zeW1hdXRoLmNvbS9vZmZsaW5lY2EvZ3NtYS1yc3AyLXJvb3QtY2kxLmNybDAO
BgNVHQ8BAf8EBAMCB4AwFwYDVR0RBBAwDogMKwYBBAGDoVQHBQECMB8GA1UdIwQY
MBaAFIE3D1El0LHUCNTDsjLm0l55W+v7MAoGCCqGSM49BAMCA0kAMEYCIQCB8ZKc
g/6GihvWWDRp8aeq1i9aXopnH4jylpXSCBLf2gIhAJvMSH9ZLw+BNnLE8jds7TQ+
0AvDXlD+w1FrbcRes3V9
-----END CERTIFICATE-----
