Certificate:
    Data:
        Version: 3 (0x2)
        Serial Number:
            3d:9e:35:6c:44:74:25:30:bd:13:fa:b6:ff:cf:9a:79
        Signature Algorithm: ecdsa-with-SHA256
        Issuer: C=US, O=Entrust, Inc., OU=See www.entrust.net/legal-terms, OU=(c) 2016 Entrust, Inc. - for authorized use only, CN=Entrust eSIM Certification Authority
        Validity
            Not Before: Jun 15 17:10:07 2022 GMT
            Not After : Jun 15 17:10:06 2024 GMT
        Subject: C=FR, ST=Île-de-France, L=Courbevoie, O=THALES, CN=SMDP+ VZW GCP UE 04 ENT, emailAddress=dl.des.ame.sre.gcp@thalesgroup.com
        Subject Public Key Info:
            Public Key Algorithm: id-ecPublicKey
                Public-Key: (256 bit)
                pub:
                    04:86:f1:68:71:24:ee:bd:66:5a:e2:6a:2f:e8:78:
                    fd:ca:82:0c:89:3f:75:49:f4:8a:6e:8b:79:ad:1c:
                    82:b7:cd:01:82:9f:5c:7b:8c:8c:8d:03:5e:a8:ce:
                    0b:b2:d7:23:fa:8c:25:df:b3:7a:5f:cf:3f:fe:7c:
                    a0:0c:5a:8a:25
                ASN1 OID: prime256v1
                NIST CURVE: P-256
        X509v3 extensions:
            X509v3 Basic Constraints: critical
                CA:FALSE
            X509v3 Subject Key Identifier: 
                CC:32:5E:AA:FD:CD:83:8A:EF:37:A3:03:52:C3:D7:72:36:2A:1C:D1
            X509v3 Authority Key Identifier: 
                16:70:4B:7F:35:1E:36:07:F1:8C:4B:70:00:5C:3A:00:3D:FD:41:4A
            X509v3 CRL Distribution Points: 
                Full Name:
                  URI:http://crl.entrust.net/entesimca.crl
            X509v3 Subject Alternative Name: 
                Registered ID:1.3.6.1.4.1.31746.1.220.100.101.1
            X509v3 Key Usage: critical
                Digital Signature
            X509v3 Certificate Policies: critical
                Policy: 2.23.146.1.2.1.4
    Signature Algorithm: ecdsa-with-SHA256
    Signature Value:
        30:46:02:21:00:ac:83:f4:39:1a:3b:36:89:54:9c:6b:69:a9:
        bd:8c:11:c7:f1:41:b9:a8:f4:9c:bc:51:54:f2:16:43:b8:b7:
        16:02:21:00:ca:c2:bf:22:60:db:b2:75:18:12:ac:b2:b5:1b:
        2a:b9:2e:b5:9d:0b:ae:43:c4:62:9c:90:7c:e9:9c:2c:eb:b0
-----BEGIN CERTIFICATE-----
MIIDKDCCAs2gAwIBAgIQPZ41bER0JTC9E/q2/8+aeTAKBggqhkjOPQQDAjCBuTEL
MAkGA1UEBhMCVVMxFjAUBgNVBAoTDUVudHJ1c3QsIEluYy4xKDAmBgNVBAsTH1Nl
ZSB3d3cuZW50cnVzdC5uZXQvbGVnYWwtdGVybXMxOTA3BgNVBAsTMChjKSAyMDE2
IEVudHJ1c3QsIEluYy4gLSBmb3IgYXV0aG9yaXplZCB1c2Ugb25seTEtMCsGA1UE
AxMkRW50cnVzdCBlU0lNIENlcnRpZmljYXRpb24gQXV0aG9yaXR5MB4XDTIyMDYx
NTE3MTAwN1oXDTI0MDYxNTE3MTAwNlowgaExCzAJBgNVBAYTAkZSMRcwFQYDVQQI
DA7DjmxlLWRlLUZyYW5jZTETMBEGA1UEBxMKQ291cmJldm9pZTEPMA0GA1UEChMG
VEhBTEVTMSAwHgYDVQQDExdTTURQKyBWWlcgR0NQIFVFIDA0IEVOVDExMC8GCSqG
SIb3DQEJARYiZGwuZGVzLmFtZS5zcmUuZ2NwQHRoYWxlc2dyb3VwLmNvbTBZMBMG
ByqGSM49AgEGCCqGSM49AwEHA0IABIbxaHEk7r1mWuJqL+h4/cqCDIk/dUn0im6L
ea0cgrfNAYKfXHuMjI0DXqjOC7LXI/qMJd+zel/PP/58oAxaiiWjgcwwgckwDAYD
VR0TAQH/BAIwADAdBgNVHQ4EFgQUzDJeqv3Ng4rvN6MDUsPXcjYqHNEwHwYDVR0j
BBgwFoAUFnBLfzUeNgfxjEtwAFw6AD39QUowNQYDVR0fBC4wLDAqoCigJoYkaHR0
cDovL2NybC5lbnRydXN0Lm5ldC9lbnRlc2ltY2EuY3JsMBkGA1UdEQQSMBCIDisG
AQQBgfgCAYFcZGUBMA4GA1UdDwEB/wQEAwIHgDAXBgNVHSABAf8EDTALMAkGB2eB
EgECAQQwCgYIKoZIzj0EAwIDSQAwRgIhAKyD9DkaOzaJVJxraam9jBHH8UG5qPSc
vFFU8hZDuLcWAiEAysK/ImDbsnUYEqyytRsquS61nQuuQ8RinJB86Zws67A=
-----END CERTIFICATE-----
